
dhry_d_rv:     file format elf64-littleriscv


Disassembly of section .text:

0000000000010000 <_ftext>:
   10000:	00015197          	auipc	gp,0x15
   10004:	1d018193          	addi	gp,gp,464 # 251d0 <_gp>
   10008:	00015297          	auipc	t0,0x15
   1000c:	ab028293          	addi	t0,t0,-1360 # 24ab8 <Reg>
   10010:	00017317          	auipc	t1,0x17
   10014:	36830313          	addi	t1,t1,872 # 27378 <_end>
   10018:	0002b023          	sd	zero,0(t0)
   1001c:	00828293          	addi	t0,t0,8
   10020:	fe62ece3          	bltu	t0,t1,10018 <_ftext+0x18>
   10024:	00001517          	auipc	a0,0x1
   10028:	14850513          	addi	a0,a0,328 # 1116c <__libc_fini_array>
   1002c:	0fc010ef          	jal	11128 <atexit>
   10030:	198010ef          	jal	111c8 <__libc_init_array>
   10034:	00012503          	lw	a0,0(sp)
   10038:	00810593          	addi	a1,sp,8
   1003c:	00000613          	li	a2,0
   10040:	124000ef          	jal	10164 <main>
   10044:	0f80106f          	j	1113c <exit>

0000000000010048 <_fini>:
   10048:	00008067          	ret

000000000001004c <deregister_tm_clones>:
   1004c:	00025537          	lui	a0,0x25
   10050:	000257b7          	lui	a5,0x25
   10054:	9c850713          	addi	a4,a0,-1592 # 249c8 <__TMC_END__>
   10058:	9cf78793          	addi	a5,a5,-1585 # 249cf <__TMC_END__+0x7>
   1005c:	40e787b3          	sub	a5,a5,a4
   10060:	00e00713          	li	a4,14
   10064:	00f77c63          	bleu	a5,a4,1007c <deregister_tm_clones+0x30>
   10068:	00000337          	lui	t1,0x0
   1006c:	00030313          	mv	t1,t1
   10070:	00030663          	beqz	t1,1007c <deregister_tm_clones+0x30>
   10074:	9c850513          	addi	a0,a0,-1592
   10078:	00030067          	jr	t1
   1007c:	00008067          	ret

0000000000010080 <register_tm_clones>:
   10080:	00025537          	lui	a0,0x25
   10084:	000257b7          	lui	a5,0x25
   10088:	9c850593          	addi	a1,a0,-1592 # 249c8 <__TMC_END__>
   1008c:	9c878793          	addi	a5,a5,-1592 # 249c8 <__TMC_END__>
   10090:	40b787b3          	sub	a5,a5,a1
   10094:	4037d793          	srai	a5,a5,0x3
   10098:	03f7d593          	srli	a1,a5,0x3f
   1009c:	00f585b3          	add	a1,a1,a5
   100a0:	4015d593          	srai	a1,a1,0x1
   100a4:	00058c63          	beqz	a1,100bc <register_tm_clones+0x3c>
   100a8:	00000337          	lui	t1,0x0
   100ac:	00030313          	mv	t1,t1
   100b0:	00030663          	beqz	t1,100bc <register_tm_clones+0x3c>
   100b4:	9c850513          	addi	a0,a0,-1592
   100b8:	00030067          	jr	t1
   100bc:	00008067          	ret

00000000000100c0 <__do_global_dtors_aux>:
   100c0:	ff010113          	addi	sp,sp,-16
   100c4:	00813023          	sd	s0,0(sp)
   100c8:	9201c783          	lbu	a5,-1760(gp) # 24af0 <_bss_start>
   100cc:	00113423          	sd	ra,8(sp)
   100d0:	02079663          	bnez	a5,100fc <__do_global_dtors_aux+0x3c>
   100d4:	f79ff0ef          	jal	1004c <deregister_tm_clones>
   100d8:	000007b7          	lui	a5,0x0
   100dc:	00078793          	mv	a5,a5
   100e0:	00078a63          	beqz	a5,100f4 <__do_global_dtors_aux+0x34>
   100e4:	00022537          	lui	a0,0x22
   100e8:	32050513          	addi	a0,a0,800 # 22320 <__fini_array_end>
   100ec:	ffff0317          	auipc	t1,0xffff0
   100f0:	f14300e7          	jalr	t1,-236 # 0 <_ftext-0x10000>
   100f4:	00100793          	li	a5,1
   100f8:	92f18023          	sb	a5,-1760(gp) # 24af0 <_bss_start>
   100fc:	00813083          	ld	ra,8(sp)
   10100:	00013403          	ld	s0,0(sp)
   10104:	01010113          	addi	sp,sp,16
   10108:	00008067          	ret

000000000001010c <frame_dummy>:
   1010c:	ff010113          	addi	sp,sp,-16
   10110:	000007b7          	lui	a5,0x0
   10114:	00113423          	sd	ra,8(sp)
   10118:	00078793          	mv	a5,a5
   1011c:	00078c63          	beqz	a5,10134 <frame_dummy+0x28>
   10120:	00022537          	lui	a0,0x22
   10124:	92818593          	addi	a1,gp,-1752 # 24af8 <object.3092>
   10128:	32050513          	addi	a0,a0,800 # 22320 <__fini_array_end>
   1012c:	ffff0317          	auipc	t1,0xffff0
   10130:	ed4300e7          	jalr	t1,-300 # 0 <_ftext-0x10000>
   10134:	000247b7          	lui	a5,0x24
   10138:	9c878513          	addi	a0,a5,-1592 # 239c8 <__JCR_END__>
   1013c:	00053783          	ld	a5,0(a0)
   10140:	00079863          	bnez	a5,10150 <frame_dummy+0x44>
   10144:	00813083          	ld	ra,8(sp)
   10148:	01010113          	addi	sp,sp,16
   1014c:	f35ff06f          	j	10080 <register_tm_clones>
   10150:	000007b7          	lui	a5,0x0
   10154:	00078793          	mv	a5,a5
   10158:	fe0786e3          	beqz	a5,10144 <frame_dummy+0x38>
   1015c:	000780e7          	jalr	a5
   10160:	fe5ff06f          	j	10144 <frame_dummy+0x38>

0000000000010164 <main>:
   10164:	f8010113          	addi	sp,sp,-128
   10168:	06113c23          	sd	ra,120(sp)
   1016c:	06813823          	sd	s0,112(sp)
   10170:	08010413          	addi	s0,sp,128
   10174:	03800513          	li	a0,56
   10178:	0f0010ef          	jal	11268 <malloc>
   1017c:	00050713          	mv	a4,a0
   10180:	000277b7          	lui	a5,0x27
   10184:	28e7b823          	sd	a4,656(a5) # 27290 <Next_Ptr_Glob>
   10188:	03800513          	li	a0,56
   1018c:	0dc010ef          	jal	11268 <malloc>
   10190:	00050713          	mv	a4,a0
   10194:	000277b7          	lui	a5,0x27
   10198:	2ae7b023          	sd	a4,672(a5) # 272a0 <Ptr_Glob>
   1019c:	000277b7          	lui	a5,0x27
   101a0:	2a07b783          	ld	a5,672(a5) # 272a0 <Ptr_Glob>
   101a4:	00027737          	lui	a4,0x27
   101a8:	29073703          	ld	a4,656(a4) # 27290 <Next_Ptr_Glob>
   101ac:	00e7b023          	sd	a4,0(a5)
   101b0:	000277b7          	lui	a5,0x27
   101b4:	2a07b783          	ld	a5,672(a5) # 272a0 <Ptr_Glob>
   101b8:	0007a423          	sw	zero,8(a5)
   101bc:	000277b7          	lui	a5,0x27
   101c0:	2a07b783          	ld	a5,672(a5) # 272a0 <Ptr_Glob>
   101c4:	00200713          	li	a4,2
   101c8:	00e7a623          	sw	a4,12(a5)
   101cc:	000277b7          	lui	a5,0x27
   101d0:	2a07b783          	ld	a5,672(a5) # 272a0 <Ptr_Glob>
   101d4:	02800713          	li	a4,40
   101d8:	00e7a823          	sw	a4,16(a5)
   101dc:	000277b7          	lui	a5,0x27
   101e0:	2a07b783          	ld	a5,672(a5) # 272a0 <Ptr_Glob>
   101e4:	01478713          	addi	a4,a5,20
   101e8:	000217b7          	lui	a5,0x21
   101ec:	00070693          	mv	a3,a4
   101f0:	ce878793          	addi	a5,a5,-792 # 20ce8 <sulp+0x6c>
   101f4:	01f00713          	li	a4,31
   101f8:	00070613          	mv	a2,a4
   101fc:	00078593          	mv	a1,a5
   10200:	00068513          	mv	a0,a3
   10204:	7ec010ef          	jal	119f0 <memcpy>
   10208:	000217b7          	lui	a5,0x21
   1020c:	d087b703          	ld	a4,-760(a5) # 20d08 <sulp+0x8c>
   10210:	fae43823          	sd	a4,-80(s0)
   10214:	d0878713          	addi	a4,a5,-760
   10218:	00873703          	ld	a4,8(a4)
   1021c:	fae43c23          	sd	a4,-72(s0)
   10220:	d0878713          	addi	a4,a5,-760
   10224:	01073703          	ld	a4,16(a4)
   10228:	fce43023          	sd	a4,-64(s0)
   1022c:	d0878713          	addi	a4,a5,-760
   10230:	01872703          	lw	a4,24(a4)
   10234:	fce42423          	sw	a4,-56(s0)
   10238:	d0878713          	addi	a4,a5,-760
   1023c:	01c75703          	lhu	a4,28(a4)
   10240:	fce41623          	sh	a4,-52(s0)
   10244:	d0878793          	addi	a5,a5,-760
   10248:	01e7c783          	lbu	a5,30(a5)
   1024c:	fcf40723          	sb	a5,-50(s0)
   10250:	9a818793          	addi	a5,gp,-1624 # 24b78 <Arr_2_Glob>
   10254:	00a00713          	li	a4,10
   10258:	64e7ae23          	sw	a4,1628(a5)
   1025c:	00a00513          	li	a0,10
   10260:	155010ef          	jal	11bb4 <putchar>
   10264:	000217b7          	lui	a5,0x21
   10268:	d2878513          	addi	a0,a5,-728 # 20d28 <sulp+0xac>
   1026c:	36d010ef          	jal	11dd8 <puts>
   10270:	00a00513          	li	a0,10
   10274:	141010ef          	jal	11bb4 <putchar>
   10278:	8e81a783          	lw	a5,-1816(gp) # 24ab8 <Reg>
   1027c:	00078e63          	beqz	a5,10298 <main+0x134>
   10280:	000217b7          	lui	a5,0x21
   10284:	d5878513          	addi	a0,a5,-680 # 20d58 <sulp+0xdc>
   10288:	351010ef          	jal	11dd8 <puts>
   1028c:	00a00513          	li	a0,10
   10290:	125010ef          	jal	11bb4 <putchar>
   10294:	0180006f          	j	102ac <main+0x148>
   10298:	000217b7          	lui	a5,0x21
   1029c:	d8878513          	addi	a0,a5,-632 # 20d88 <sulp+0x10c>
   102a0:	339010ef          	jal	11dd8 <puts>
   102a4:	00a00513          	li	a0,10
   102a8:	10d010ef          	jal	11bb4 <putchar>
   102ac:	000217b7          	lui	a5,0x21
   102b0:	db878513          	addi	a0,a5,-584 # 20db8 <sulp+0x13c>
   102b4:	0a9010ef          	jal	11b5c <printf>
   102b8:	f8c40793          	addi	a5,s0,-116
   102bc:	00078593          	mv	a1,a5
   102c0:	000217b7          	lui	a5,0x21
   102c4:	df078513          	addi	a0,a5,-528 # 20df0 <sulp+0x174>
   102c8:	31d010ef          	jal	11de4 <scanf>
   102cc:	f8c42783          	lw	a5,-116(s0)
   102d0:	fef42023          	sw	a5,-32(s0)
   102d4:	00a00513          	li	a0,10
   102d8:	0dd010ef          	jal	11bb4 <putchar>
   102dc:	fe042583          	lw	a1,-32(s0)
   102e0:	000217b7          	lui	a5,0x21
   102e4:	df878513          	addi	a0,a5,-520 # 20df8 <sulp+0x17c>
   102e8:	075010ef          	jal	11b5c <printf>
   102ec:	00000513          	li	a0,0
   102f0:	585010ef          	jal	12074 <time>
   102f4:	00050713          	mv	a4,a0
   102f8:	9ae1b023          	sd	a4,-1632(gp) # 24b70 <Begin_Time>
   102fc:	00100793          	li	a5,1
   10300:	fef42223          	sw	a5,-28(s0)
   10304:	2240006f          	j	10528 <main+0x3c4>
   10308:	191000ef          	jal	10c98 <Proc_5>
   1030c:	131000ef          	jal	10c3c <Proc_4>
   10310:	00200793          	li	a5,2
   10314:	fcf42e23          	sw	a5,-36(s0)
   10318:	00300793          	li	a5,3
   1031c:	fef42623          	sw	a5,-20(s0)
   10320:	000217b7          	lui	a5,0x21
   10324:	e287b703          	ld	a4,-472(a5) # 20e28 <sulp+0x1ac>
   10328:	f8e43823          	sd	a4,-112(s0)
   1032c:	e2878713          	addi	a4,a5,-472
   10330:	00873703          	ld	a4,8(a4)
   10334:	f8e43c23          	sd	a4,-104(s0)
   10338:	e2878713          	addi	a4,a5,-472
   1033c:	01073703          	ld	a4,16(a4)
   10340:	fae43023          	sd	a4,-96(s0)
   10344:	e2878713          	addi	a4,a5,-472
   10348:	01872703          	lw	a4,24(a4)
   1034c:	fae42423          	sw	a4,-88(s0)
   10350:	e2878713          	addi	a4,a5,-472
   10354:	01c75703          	lhu	a4,28(a4)
   10358:	fae41623          	sh	a4,-84(s0)
   1035c:	e2878793          	addi	a5,a5,-472
   10360:	01e7c783          	lbu	a5,30(a5)
   10364:	faf40723          	sb	a5,-82(s0)
   10368:	00100793          	li	a5,1
   1036c:	fcf42a23          	sw	a5,-44(s0)
   10370:	f9040713          	addi	a4,s0,-112
   10374:	fb040793          	addi	a5,s0,-80
   10378:	00070593          	mv	a1,a4
   1037c:	00078513          	mv	a0,a5
   10380:	469000ef          	jal	10fe8 <Func_2>
   10384:	00050793          	mv	a5,a0
   10388:	0017b793          	seqz	a5,a5
   1038c:	0ff7f793          	andi	a5,a5,255
   10390:	00078713          	mv	a4,a5
   10394:	000277b7          	lui	a5,0x27
   10398:	36e7a823          	sw	a4,880(a5) # 27370 <Bool_Glob>
   1039c:	0440006f          	j	103e0 <main+0x27c>
   103a0:	fdc42703          	lw	a4,-36(s0)
   103a4:	00070793          	mv	a5,a4
   103a8:	0027979b          	slliw	a5,a5,0x2
   103ac:	00e7873b          	addw	a4,a5,a4
   103b0:	fec42783          	lw	a5,-20(s0)
   103b4:	40f707bb          	subw	a5,a4,a5
   103b8:	fcf42c23          	sw	a5,-40(s0)
   103bc:	fdc42783          	lw	a5,-36(s0)
   103c0:	fd840713          	addi	a4,s0,-40
   103c4:	00070613          	mv	a2,a4
   103c8:	fec42583          	lw	a1,-20(s0)
   103cc:	00078513          	mv	a0,a5
   103d0:	1d9000ef          	jal	10da8 <Proc_7>
   103d4:	fdc42783          	lw	a5,-36(s0)
   103d8:	0017879b          	addiw	a5,a5,1
   103dc:	fcf42e23          	sw	a5,-36(s0)
   103e0:	fdc42703          	lw	a4,-36(s0)
   103e4:	fec42783          	lw	a5,-20(s0)
   103e8:	faf74ce3          	blt	a4,a5,103a0 <main+0x23c>
   103ec:	fdc42783          	lw	a5,-36(s0)
   103f0:	fd842703          	lw	a4,-40(s0)
   103f4:	00070693          	mv	a3,a4
   103f8:	00078613          	mv	a2,a5
   103fc:	9a818593          	addi	a1,gp,-1624 # 24b78 <Arr_2_Glob>
   10400:	000277b7          	lui	a5,0x27
   10404:	2a878513          	addi	a0,a5,680 # 272a8 <Arr_1_Glob>
   10408:	1ed000ef          	jal	10df4 <Proc_8>
   1040c:	000277b7          	lui	a5,0x27
   10410:	2a07b783          	ld	a5,672(a5) # 272a0 <Ptr_Glob>
   10414:	00078513          	mv	a0,a5
   10418:	5d8000ef          	jal	109f0 <Proc_1>
   1041c:	04100793          	li	a5,65
   10420:	fef405a3          	sb	a5,-21(s0)
   10424:	0980006f          	j	104bc <main+0x358>
   10428:	feb44783          	lbu	a5,-21(s0)
   1042c:	04300593          	li	a1,67
   10430:	00078513          	mv	a0,a5
   10434:	355000ef          	jal	10f88 <Func_1>
   10438:	00050713          	mv	a4,a0
   1043c:	fd442783          	lw	a5,-44(s0)
   10440:	06f71863          	bne	a4,a5,104b0 <main+0x34c>
   10444:	fd440793          	addi	a5,s0,-44
   10448:	00078593          	mv	a1,a5
   1044c:	00000513          	li	a0,0
   10450:	07d000ef          	jal	10ccc <Proc_6>
   10454:	000217b7          	lui	a5,0x21
   10458:	e487b703          	ld	a4,-440(a5) # 20e48 <sulp+0x1cc>
   1045c:	f8e43823          	sd	a4,-112(s0)
   10460:	e4878713          	addi	a4,a5,-440
   10464:	00873703          	ld	a4,8(a4)
   10468:	f8e43c23          	sd	a4,-104(s0)
   1046c:	e4878713          	addi	a4,a5,-440
   10470:	01073703          	ld	a4,16(a4)
   10474:	fae43023          	sd	a4,-96(s0)
   10478:	e4878713          	addi	a4,a5,-440
   1047c:	01872703          	lw	a4,24(a4)
   10480:	fae42423          	sw	a4,-88(s0)
   10484:	e4878713          	addi	a4,a5,-440
   10488:	01c75703          	lhu	a4,28(a4)
   1048c:	fae41623          	sh	a4,-84(s0)
   10490:	e4878793          	addi	a5,a5,-440
   10494:	01e7c783          	lbu	a5,30(a5)
   10498:	faf40723          	sb	a5,-82(s0)
   1049c:	fe442783          	lw	a5,-28(s0)
   104a0:	fef42623          	sw	a5,-20(s0)
   104a4:	000277b7          	lui	a5,0x27
   104a8:	fe442703          	lw	a4,-28(s0)
   104ac:	28e7ac23          	sw	a4,664(a5) # 27298 <Int_Glob>
   104b0:	feb44783          	lbu	a5,-21(s0)
   104b4:	0017879b          	addiw	a5,a5,1
   104b8:	fef405a3          	sb	a5,-21(s0)
   104bc:	000277b7          	lui	a5,0x27
   104c0:	29d7c703          	lbu	a4,669(a5) # 2729d <Ch_2_Glob>
   104c4:	feb44783          	lbu	a5,-21(s0)
   104c8:	f6f770e3          	bleu	a5,a4,10428 <main+0x2c4>
   104cc:	fdc42783          	lw	a5,-36(s0)
   104d0:	fec42703          	lw	a4,-20(s0)
   104d4:	02f707bb          	mulw	a5,a4,a5
   104d8:	fef42623          	sw	a5,-20(s0)
   104dc:	fd842783          	lw	a5,-40(s0)
   104e0:	fec42703          	lw	a4,-20(s0)
   104e4:	02f747bb          	divw	a5,a4,a5
   104e8:	fcf42e23          	sw	a5,-36(s0)
   104ec:	fd842783          	lw	a5,-40(s0)
   104f0:	fec42703          	lw	a4,-20(s0)
   104f4:	40f7073b          	subw	a4,a4,a5
   104f8:	00070793          	mv	a5,a4
   104fc:	0037979b          	slliw	a5,a5,0x3
   10500:	40e7873b          	subw	a4,a5,a4
   10504:	fdc42783          	lw	a5,-36(s0)
   10508:	40f707bb          	subw	a5,a4,a5
   1050c:	fef42623          	sw	a5,-20(s0)
   10510:	fdc40793          	addi	a5,s0,-36
   10514:	00078513          	mv	a0,a5
   10518:	640000ef          	jal	10b58 <Proc_2>
   1051c:	fe442783          	lw	a5,-28(s0)
   10520:	0017879b          	addiw	a5,a5,1
   10524:	fef42223          	sw	a5,-28(s0)
   10528:	fe442703          	lw	a4,-28(s0)
   1052c:	fe042783          	lw	a5,-32(s0)
   10530:	dce7dce3          	ble	a4,a5,10308 <main+0x1a4>
   10534:	00000513          	li	a0,0
   10538:	33d010ef          	jal	12074 <time>
   1053c:	00050713          	mv	a4,a0
   10540:	000277b7          	lui	a5,0x27
   10544:	28e7b423          	sd	a4,648(a5) # 27288 <End_Time>
   10548:	000217b7          	lui	a5,0x21
   1054c:	e6878513          	addi	a0,a5,-408 # 20e68 <sulp+0x1ec>
   10550:	089010ef          	jal	11dd8 <puts>
   10554:	00a00513          	li	a0,10
   10558:	65c010ef          	jal	11bb4 <putchar>
   1055c:	000217b7          	lui	a5,0x21
   10560:	e7878513          	addi	a0,a5,-392 # 20e78 <sulp+0x1fc>
   10564:	075010ef          	jal	11dd8 <puts>
   10568:	00a00513          	li	a0,10
   1056c:	648010ef          	jal	11bb4 <putchar>
   10570:	000277b7          	lui	a5,0x27
   10574:	2987a783          	lw	a5,664(a5) # 27298 <Int_Glob>
   10578:	00078593          	mv	a1,a5
   1057c:	000217b7          	lui	a5,0x21
   10580:	eb078513          	addi	a0,a5,-336 # 20eb0 <sulp+0x234>
   10584:	5d8010ef          	jal	11b5c <printf>
   10588:	00500593          	li	a1,5
   1058c:	000217b7          	lui	a5,0x21
   10590:	ed078513          	addi	a0,a5,-304 # 20ed0 <sulp+0x254>
   10594:	5c8010ef          	jal	11b5c <printf>
   10598:	000277b7          	lui	a5,0x27
   1059c:	3707a783          	lw	a5,880(a5) # 27370 <Bool_Glob>
   105a0:	00078593          	mv	a1,a5
   105a4:	000217b7          	lui	a5,0x21
   105a8:	ef078513          	addi	a0,a5,-272 # 20ef0 <sulp+0x274>
   105ac:	5b0010ef          	jal	11b5c <printf>
   105b0:	00100593          	li	a1,1
   105b4:	000217b7          	lui	a5,0x21
   105b8:	ed078513          	addi	a0,a5,-304 # 20ed0 <sulp+0x254>
   105bc:	5a0010ef          	jal	11b5c <printf>
   105c0:	000277b7          	lui	a5,0x27
   105c4:	29c7c783          	lbu	a5,668(a5) # 2729c <Ch_1_Glob>
   105c8:	00078593          	mv	a1,a5
   105cc:	000217b7          	lui	a5,0x21
   105d0:	f1078513          	addi	a0,a5,-240 # 20f10 <sulp+0x294>
   105d4:	588010ef          	jal	11b5c <printf>
   105d8:	04100593          	li	a1,65
   105dc:	000217b7          	lui	a5,0x21
   105e0:	f3078513          	addi	a0,a5,-208 # 20f30 <sulp+0x2b4>
   105e4:	578010ef          	jal	11b5c <printf>
   105e8:	000277b7          	lui	a5,0x27
   105ec:	29d7c783          	lbu	a5,669(a5) # 2729d <Ch_2_Glob>
   105f0:	00078593          	mv	a1,a5
   105f4:	000217b7          	lui	a5,0x21
   105f8:	f5078513          	addi	a0,a5,-176 # 20f50 <sulp+0x2d4>
   105fc:	560010ef          	jal	11b5c <printf>
   10600:	04200593          	li	a1,66
   10604:	000217b7          	lui	a5,0x21
   10608:	f3078513          	addi	a0,a5,-208 # 20f30 <sulp+0x2b4>
   1060c:	550010ef          	jal	11b5c <printf>
   10610:	000277b7          	lui	a5,0x27
   10614:	2a878793          	addi	a5,a5,680 # 272a8 <Arr_1_Glob>
   10618:	0207a783          	lw	a5,32(a5)
   1061c:	00078593          	mv	a1,a5
   10620:	000217b7          	lui	a5,0x21
   10624:	f7078513          	addi	a0,a5,-144 # 20f70 <sulp+0x2f4>
   10628:	534010ef          	jal	11b5c <printf>
   1062c:	00700593          	li	a1,7
   10630:	000217b7          	lui	a5,0x21
   10634:	ed078513          	addi	a0,a5,-304 # 20ed0 <sulp+0x254>
   10638:	524010ef          	jal	11b5c <printf>
   1063c:	9a818793          	addi	a5,gp,-1624 # 24b78 <Arr_2_Glob>
   10640:	65c7a783          	lw	a5,1628(a5)
   10644:	00078593          	mv	a1,a5
   10648:	000217b7          	lui	a5,0x21
   1064c:	f9078513          	addi	a0,a5,-112 # 20f90 <sulp+0x314>
   10650:	50c010ef          	jal	11b5c <printf>
   10654:	000217b7          	lui	a5,0x21
   10658:	fb078513          	addi	a0,a5,-80 # 20fb0 <sulp+0x334>
   1065c:	77c010ef          	jal	11dd8 <puts>
   10660:	000217b7          	lui	a5,0x21
   10664:	fe078513          	addi	a0,a5,-32 # 20fe0 <sulp+0x364>
   10668:	770010ef          	jal	11dd8 <puts>
   1066c:	000277b7          	lui	a5,0x27
   10670:	2a07b783          	ld	a5,672(a5) # 272a0 <Ptr_Glob>
   10674:	0007b783          	ld	a5,0(a5)
   10678:	0007879b          	sext.w	a5,a5
   1067c:	00078593          	mv	a1,a5
   10680:	000217b7          	lui	a5,0x21
   10684:	ff078513          	addi	a0,a5,-16 # 20ff0 <sulp+0x374>
   10688:	4d4010ef          	jal	11b5c <printf>
   1068c:	000217b7          	lui	a5,0x21
   10690:	01078513          	addi	a0,a5,16 # 21010 <sulp+0x394>
   10694:	744010ef          	jal	11dd8 <puts>
   10698:	000277b7          	lui	a5,0x27
   1069c:	2a07b783          	ld	a5,672(a5) # 272a0 <Ptr_Glob>
   106a0:	0087a783          	lw	a5,8(a5)
   106a4:	00078593          	mv	a1,a5
   106a8:	000217b7          	lui	a5,0x21
   106ac:	04078513          	addi	a0,a5,64 # 21040 <sulp+0x3c4>
   106b0:	4ac010ef          	jal	11b5c <printf>
   106b4:	00000593          	li	a1,0
   106b8:	000217b7          	lui	a5,0x21
   106bc:	ed078513          	addi	a0,a5,-304 # 20ed0 <sulp+0x254>
   106c0:	49c010ef          	jal	11b5c <printf>
   106c4:	000277b7          	lui	a5,0x27
   106c8:	2a07b783          	ld	a5,672(a5) # 272a0 <Ptr_Glob>
   106cc:	00c7a783          	lw	a5,12(a5)
   106d0:	00078593          	mv	a1,a5
   106d4:	000217b7          	lui	a5,0x21
   106d8:	06078513          	addi	a0,a5,96 # 21060 <sulp+0x3e4>
   106dc:	480010ef          	jal	11b5c <printf>
   106e0:	00200593          	li	a1,2
   106e4:	000217b7          	lui	a5,0x21
   106e8:	ed078513          	addi	a0,a5,-304 # 20ed0 <sulp+0x254>
   106ec:	470010ef          	jal	11b5c <printf>
   106f0:	000277b7          	lui	a5,0x27
   106f4:	2a07b783          	ld	a5,672(a5) # 272a0 <Ptr_Glob>
   106f8:	0107a783          	lw	a5,16(a5)
   106fc:	00078593          	mv	a1,a5
   10700:	000217b7          	lui	a5,0x21
   10704:	08078513          	addi	a0,a5,128 # 21080 <sulp+0x404>
   10708:	454010ef          	jal	11b5c <printf>
   1070c:	01100593          	li	a1,17
   10710:	000217b7          	lui	a5,0x21
   10714:	ed078513          	addi	a0,a5,-304 # 20ed0 <sulp+0x254>
   10718:	444010ef          	jal	11b5c <printf>
   1071c:	000277b7          	lui	a5,0x27
   10720:	2a07b783          	ld	a5,672(a5) # 272a0 <Ptr_Glob>
   10724:	01478793          	addi	a5,a5,20
   10728:	00078593          	mv	a1,a5
   1072c:	000217b7          	lui	a5,0x21
   10730:	0a078513          	addi	a0,a5,160 # 210a0 <sulp+0x424>
   10734:	428010ef          	jal	11b5c <printf>
   10738:	000217b7          	lui	a5,0x21
   1073c:	0c078513          	addi	a0,a5,192 # 210c0 <sulp+0x444>
   10740:	698010ef          	jal	11dd8 <puts>
   10744:	000217b7          	lui	a5,0x21
   10748:	0f878513          	addi	a0,a5,248 # 210f8 <sulp+0x47c>
   1074c:	68c010ef          	jal	11dd8 <puts>
   10750:	000277b7          	lui	a5,0x27
   10754:	2907b783          	ld	a5,656(a5) # 27290 <Next_Ptr_Glob>
   10758:	0007b783          	ld	a5,0(a5)
   1075c:	0007879b          	sext.w	a5,a5
   10760:	00078593          	mv	a1,a5
   10764:	000217b7          	lui	a5,0x21
   10768:	ff078513          	addi	a0,a5,-16 # 20ff0 <sulp+0x374>
   1076c:	3f0010ef          	jal	11b5c <printf>
   10770:	000217b7          	lui	a5,0x21
   10774:	10878513          	addi	a0,a5,264 # 21108 <sulp+0x48c>
   10778:	660010ef          	jal	11dd8 <puts>
   1077c:	000277b7          	lui	a5,0x27
   10780:	2907b783          	ld	a5,656(a5) # 27290 <Next_Ptr_Glob>
   10784:	0087a783          	lw	a5,8(a5)
   10788:	00078593          	mv	a1,a5
   1078c:	000217b7          	lui	a5,0x21
   10790:	04078513          	addi	a0,a5,64 # 21040 <sulp+0x3c4>
   10794:	3c8010ef          	jal	11b5c <printf>
   10798:	00000593          	li	a1,0
   1079c:	000217b7          	lui	a5,0x21
   107a0:	ed078513          	addi	a0,a5,-304 # 20ed0 <sulp+0x254>
   107a4:	3b8010ef          	jal	11b5c <printf>
   107a8:	000277b7          	lui	a5,0x27
   107ac:	2907b783          	ld	a5,656(a5) # 27290 <Next_Ptr_Glob>
   107b0:	00c7a783          	lw	a5,12(a5)
   107b4:	00078593          	mv	a1,a5
   107b8:	000217b7          	lui	a5,0x21
   107bc:	06078513          	addi	a0,a5,96 # 21060 <sulp+0x3e4>
   107c0:	39c010ef          	jal	11b5c <printf>
   107c4:	00100593          	li	a1,1
   107c8:	000217b7          	lui	a5,0x21
   107cc:	ed078513          	addi	a0,a5,-304 # 20ed0 <sulp+0x254>
   107d0:	38c010ef          	jal	11b5c <printf>
   107d4:	000277b7          	lui	a5,0x27
   107d8:	2907b783          	ld	a5,656(a5) # 27290 <Next_Ptr_Glob>
   107dc:	0107a783          	lw	a5,16(a5)
   107e0:	00078593          	mv	a1,a5
   107e4:	000217b7          	lui	a5,0x21
   107e8:	08078513          	addi	a0,a5,128 # 21080 <sulp+0x404>
   107ec:	370010ef          	jal	11b5c <printf>
   107f0:	01200593          	li	a1,18
   107f4:	000217b7          	lui	a5,0x21
   107f8:	ed078513          	addi	a0,a5,-304 # 20ed0 <sulp+0x254>
   107fc:	360010ef          	jal	11b5c <printf>
   10800:	000277b7          	lui	a5,0x27
   10804:	2907b783          	ld	a5,656(a5) # 27290 <Next_Ptr_Glob>
   10808:	01478793          	addi	a5,a5,20
   1080c:	00078593          	mv	a1,a5
   10810:	000217b7          	lui	a5,0x21
   10814:	0a078513          	addi	a0,a5,160 # 210a0 <sulp+0x424>
   10818:	344010ef          	jal	11b5c <printf>
   1081c:	000217b7          	lui	a5,0x21
   10820:	0c078513          	addi	a0,a5,192 # 210c0 <sulp+0x444>
   10824:	5b4010ef          	jal	11dd8 <puts>
   10828:	fdc42783          	lw	a5,-36(s0)
   1082c:	00078593          	mv	a1,a5
   10830:	000217b7          	lui	a5,0x21
   10834:	14878513          	addi	a0,a5,328 # 21148 <sulp+0x4cc>
   10838:	324010ef          	jal	11b5c <printf>
   1083c:	00500593          	li	a1,5
   10840:	000217b7          	lui	a5,0x21
   10844:	ed078513          	addi	a0,a5,-304 # 20ed0 <sulp+0x254>
   10848:	314010ef          	jal	11b5c <printf>
   1084c:	fec42583          	lw	a1,-20(s0)
   10850:	000217b7          	lui	a5,0x21
   10854:	16878513          	addi	a0,a5,360 # 21168 <sulp+0x4ec>
   10858:	304010ef          	jal	11b5c <printf>
   1085c:	00d00593          	li	a1,13
   10860:	000217b7          	lui	a5,0x21
   10864:	ed078513          	addi	a0,a5,-304 # 20ed0 <sulp+0x254>
   10868:	2f4010ef          	jal	11b5c <printf>
   1086c:	fd842783          	lw	a5,-40(s0)
   10870:	00078593          	mv	a1,a5
   10874:	000217b7          	lui	a5,0x21
   10878:	18878513          	addi	a0,a5,392 # 21188 <sulp+0x50c>
   1087c:	2e0010ef          	jal	11b5c <printf>
   10880:	00700593          	li	a1,7
   10884:	000217b7          	lui	a5,0x21
   10888:	ed078513          	addi	a0,a5,-304 # 20ed0 <sulp+0x254>
   1088c:	2d0010ef          	jal	11b5c <printf>
   10890:	fd442783          	lw	a5,-44(s0)
   10894:	00078593          	mv	a1,a5
   10898:	000217b7          	lui	a5,0x21
   1089c:	1a878513          	addi	a0,a5,424 # 211a8 <sulp+0x52c>
   108a0:	2bc010ef          	jal	11b5c <printf>
   108a4:	00100593          	li	a1,1
   108a8:	000217b7          	lui	a5,0x21
   108ac:	ed078513          	addi	a0,a5,-304 # 20ed0 <sulp+0x254>
   108b0:	2ac010ef          	jal	11b5c <printf>
   108b4:	fb040793          	addi	a5,s0,-80
   108b8:	00078593          	mv	a1,a5
   108bc:	000217b7          	lui	a5,0x21
   108c0:	1c878513          	addi	a0,a5,456 # 211c8 <sulp+0x54c>
   108c4:	298010ef          	jal	11b5c <printf>
   108c8:	000217b7          	lui	a5,0x21
   108cc:	1e878513          	addi	a0,a5,488 # 211e8 <sulp+0x56c>
   108d0:	508010ef          	jal	11dd8 <puts>
   108d4:	f9040793          	addi	a5,s0,-112
   108d8:	00078593          	mv	a1,a5
   108dc:	000217b7          	lui	a5,0x21
   108e0:	22078513          	addi	a0,a5,544 # 21220 <sulp+0x5a4>
   108e4:	278010ef          	jal	11b5c <printf>
   108e8:	000217b7          	lui	a5,0x21
   108ec:	24078513          	addi	a0,a5,576 # 21240 <sulp+0x5c4>
   108f0:	4e8010ef          	jal	11dd8 <puts>
   108f4:	00a00513          	li	a0,10
   108f8:	2bc010ef          	jal	11bb4 <putchar>
   108fc:	000277b7          	lui	a5,0x27
   10900:	2887b703          	ld	a4,648(a5) # 27288 <End_Time>
   10904:	9a01b783          	ld	a5,-1632(gp) # 24b70 <Begin_Time>
   10908:	40f70733          	sub	a4,a4,a5
   1090c:	98e1bc23          	sd	a4,-1640(gp) # 24b68 <User_Time>
   10910:	9981b703          	ld	a4,-1640(gp) # 24b68 <User_Time>
   10914:	00100793          	li	a5,1
   10918:	02e7c463          	blt	a5,a4,10940 <main+0x7dc>
   1091c:	000217b7          	lui	a5,0x21
   10920:	27878513          	addi	a0,a5,632 # 21278 <sulp+0x5fc>
   10924:	4b4010ef          	jal	11dd8 <puts>
   10928:	000217b7          	lui	a5,0x21
   1092c:	2b078513          	addi	a0,a5,688 # 212b0 <sulp+0x634>
   10930:	4a8010ef          	jal	11dd8 <puts>
   10934:	00a00513          	li	a0,10
   10938:	27c010ef          	jal	11bb4 <putchar>
   1093c:	09c0006f          	j	109d8 <main+0x874>
   10940:	9981b783          	ld	a5,-1640(gp) # 24b68 <User_Time>
   10944:	d027f7d3          	fcvt.s.l	fa5,a5
   10948:	42078753          	fcvt.d.s	fa4,fa5
   1094c:	000217b7          	lui	a5,0x21
   10950:	3387b787          	fld	fa5,824(a5) # 21338 <sulp+0x6bc>
   10954:	12f77753          	fmul.d	fa4,fa4,fa5
   10958:	fe042783          	lw	a5,-32(s0)
   1095c:	d007f7d3          	fcvt.s.w	fa5,a5
   10960:	420787d3          	fcvt.d.s	fa5,fa5
   10964:	1af777d3          	fdiv.d	fa5,fa4,fa5
   10968:	4017f7d3          	fcvt.s.d	fa5,fa5
   1096c:	98f1a827          	fsw	fa5,-1648(gp) # 24b60 <Microseconds>
   10970:	fe042783          	lw	a5,-32(s0)
   10974:	d007f753          	fcvt.s.w	fa4,a5
   10978:	9981b783          	ld	a5,-1640(gp) # 24b68 <User_Time>
   1097c:	d027f7d3          	fcvt.s.l	fa5,a5
   10980:	18f777d3          	fdiv.s	fa5,fa4,fa5
   10984:	98f1aa27          	fsw	fa5,-1644(gp) # 24b64 <Dhrystones_Per_Second>
   10988:	000217b7          	lui	a5,0x21
   1098c:	2d078513          	addi	a0,a5,720 # 212d0 <sulp+0x654>
   10990:	1cc010ef          	jal	11b5c <printf>
   10994:	9901a787          	flw	fa5,-1648(gp) # 24b60 <Microseconds>
   10998:	420787d3          	fcvt.d.s	fa5,fa5
   1099c:	e20785d3          	fmv.x.d	a1,fa5
   109a0:	000217b7          	lui	a5,0x21
   109a4:	30078513          	addi	a0,a5,768 # 21300 <sulp+0x684>
   109a8:	1b4010ef          	jal	11b5c <printf>
   109ac:	000217b7          	lui	a5,0x21
   109b0:	30878513          	addi	a0,a5,776 # 21308 <sulp+0x68c>
   109b4:	1a8010ef          	jal	11b5c <printf>
   109b8:	9941a787          	flw	fa5,-1644(gp) # 24b64 <Dhrystones_Per_Second>
   109bc:	420787d3          	fcvt.d.s	fa5,fa5
   109c0:	e20785d3          	fmv.x.d	a1,fa5
   109c4:	000217b7          	lui	a5,0x21
   109c8:	30078513          	addi	a0,a5,768 # 21300 <sulp+0x684>
   109cc:	190010ef          	jal	11b5c <printf>
   109d0:	00a00513          	li	a0,10
   109d4:	1e0010ef          	jal	11bb4 <putchar>
   109d8:	00000793          	li	a5,0
   109dc:	00078513          	mv	a0,a5
   109e0:	07813083          	ld	ra,120(sp)
   109e4:	07013403          	ld	s0,112(sp)
   109e8:	08010113          	addi	sp,sp,128
   109ec:	00008067          	ret

00000000000109f0 <Proc_1>:
   109f0:	fd010113          	addi	sp,sp,-48
   109f4:	02113423          	sd	ra,40(sp)
   109f8:	02813023          	sd	s0,32(sp)
   109fc:	03010413          	addi	s0,sp,48
   10a00:	fca43c23          	sd	a0,-40(s0)
   10a04:	fd843783          	ld	a5,-40(s0)
   10a08:	0007b783          	ld	a5,0(a5)
   10a0c:	fef43423          	sd	a5,-24(s0)
   10a10:	fd843783          	ld	a5,-40(s0)
   10a14:	0007b783          	ld	a5,0(a5)
   10a18:	00027737          	lui	a4,0x27
   10a1c:	2a073703          	ld	a4,672(a4) # 272a0 <Ptr_Glob>
   10a20:	00073683          	ld	a3,0(a4)
   10a24:	00d7b023          	sd	a3,0(a5)
   10a28:	00873683          	ld	a3,8(a4)
   10a2c:	00d7b423          	sd	a3,8(a5)
   10a30:	01073683          	ld	a3,16(a4)
   10a34:	00d7b823          	sd	a3,16(a5)
   10a38:	01873683          	ld	a3,24(a4)
   10a3c:	00d7bc23          	sd	a3,24(a5)
   10a40:	02073683          	ld	a3,32(a4)
   10a44:	02d7b023          	sd	a3,32(a5)
   10a48:	02873683          	ld	a3,40(a4)
   10a4c:	02d7b423          	sd	a3,40(a5)
   10a50:	03073703          	ld	a4,48(a4)
   10a54:	02e7b823          	sd	a4,48(a5)
   10a58:	fd843783          	ld	a5,-40(s0)
   10a5c:	00500713          	li	a4,5
   10a60:	00e7a823          	sw	a4,16(a5)
   10a64:	fd843783          	ld	a5,-40(s0)
   10a68:	0107a703          	lw	a4,16(a5)
   10a6c:	fe843783          	ld	a5,-24(s0)
   10a70:	00e7a823          	sw	a4,16(a5)
   10a74:	fd843783          	ld	a5,-40(s0)
   10a78:	0007b703          	ld	a4,0(a5)
   10a7c:	fe843783          	ld	a5,-24(s0)
   10a80:	00e7b023          	sd	a4,0(a5)
   10a84:	fe843783          	ld	a5,-24(s0)
   10a88:	00078513          	mv	a0,a5
   10a8c:	140000ef          	jal	10bcc <Proc_3>
   10a90:	fe843783          	ld	a5,-24(s0)
   10a94:	0087a783          	lw	a5,8(a5)
   10a98:	06079263          	bnez	a5,10afc <Proc_1+0x10c>
   10a9c:	fe843783          	ld	a5,-24(s0)
   10aa0:	00600713          	li	a4,6
   10aa4:	00e7a823          	sw	a4,16(a5)
   10aa8:	fd843783          	ld	a5,-40(s0)
   10aac:	00c7a703          	lw	a4,12(a5)
   10ab0:	fe843783          	ld	a5,-24(s0)
   10ab4:	00c78793          	addi	a5,a5,12
   10ab8:	00078593          	mv	a1,a5
   10abc:	00070513          	mv	a0,a4
   10ac0:	20c000ef          	jal	10ccc <Proc_6>
   10ac4:	000277b7          	lui	a5,0x27
   10ac8:	2a07b783          	ld	a5,672(a5) # 272a0 <Ptr_Glob>
   10acc:	0007b703          	ld	a4,0(a5)
   10ad0:	fe843783          	ld	a5,-24(s0)
   10ad4:	00e7b023          	sd	a4,0(a5)
   10ad8:	fe843783          	ld	a5,-24(s0)
   10adc:	0107a703          	lw	a4,16(a5)
   10ae0:	fe843783          	ld	a5,-24(s0)
   10ae4:	01078793          	addi	a5,a5,16
   10ae8:	00078613          	mv	a2,a5
   10aec:	00a00593          	li	a1,10
   10af0:	00070513          	mv	a0,a4
   10af4:	2b4000ef          	jal	10da8 <Proc_7>
   10af8:	0480006f          	j	10b40 <Proc_1+0x150>
   10afc:	fd843783          	ld	a5,-40(s0)
   10b00:	0007b703          	ld	a4,0(a5)
   10b04:	fd843783          	ld	a5,-40(s0)
   10b08:	00073683          	ld	a3,0(a4)
   10b0c:	00d7b023          	sd	a3,0(a5)
   10b10:	00873683          	ld	a3,8(a4)
   10b14:	00d7b423          	sd	a3,8(a5)
   10b18:	01073683          	ld	a3,16(a4)
   10b1c:	00d7b823          	sd	a3,16(a5)
   10b20:	01873683          	ld	a3,24(a4)
   10b24:	00d7bc23          	sd	a3,24(a5)
   10b28:	02073683          	ld	a3,32(a4)
   10b2c:	02d7b023          	sd	a3,32(a5)
   10b30:	02873683          	ld	a3,40(a4)
   10b34:	02d7b423          	sd	a3,40(a5)
   10b38:	03073703          	ld	a4,48(a4)
   10b3c:	02e7b823          	sd	a4,48(a5)
   10b40:	00000013          	nop
   10b44:	00078513          	mv	a0,a5
   10b48:	02813083          	ld	ra,40(sp)
   10b4c:	02013403          	ld	s0,32(sp)
   10b50:	03010113          	addi	sp,sp,48
   10b54:	00008067          	ret

0000000000010b58 <Proc_2>:
   10b58:	fd010113          	addi	sp,sp,-48
   10b5c:	02813423          	sd	s0,40(sp)
   10b60:	03010413          	addi	s0,sp,48
   10b64:	fca43c23          	sd	a0,-40(s0)
   10b68:	fd843783          	ld	a5,-40(s0)
   10b6c:	0007a783          	lw	a5,0(a5)
   10b70:	00a7879b          	addiw	a5,a5,10
   10b74:	fef42623          	sw	a5,-20(s0)
   10b78:	000277b7          	lui	a5,0x27
   10b7c:	29c7c703          	lbu	a4,668(a5) # 2729c <Ch_1_Glob>
   10b80:	04100793          	li	a5,65
   10b84:	02f71663          	bne	a4,a5,10bb0 <Proc_2+0x58>
   10b88:	fec42783          	lw	a5,-20(s0)
   10b8c:	fff7879b          	addiw	a5,a5,-1
   10b90:	fef42623          	sw	a5,-20(s0)
   10b94:	000277b7          	lui	a5,0x27
   10b98:	2987a783          	lw	a5,664(a5) # 27298 <Int_Glob>
   10b9c:	fec42703          	lw	a4,-20(s0)
   10ba0:	40f7073b          	subw	a4,a4,a5
   10ba4:	fd843783          	ld	a5,-40(s0)
   10ba8:	00e7a023          	sw	a4,0(a5)
   10bac:	fe042423          	sw	zero,-24(s0)
   10bb0:	fe842783          	lw	a5,-24(s0)
   10bb4:	fc0792e3          	bnez	a5,10b78 <Proc_2+0x20>
   10bb8:	00000013          	nop
   10bbc:	00078513          	mv	a0,a5
   10bc0:	02813403          	ld	s0,40(sp)
   10bc4:	03010113          	addi	sp,sp,48
   10bc8:	00008067          	ret

0000000000010bcc <Proc_3>:
   10bcc:	fe010113          	addi	sp,sp,-32
   10bd0:	00113c23          	sd	ra,24(sp)
   10bd4:	00813823          	sd	s0,16(sp)
   10bd8:	02010413          	addi	s0,sp,32
   10bdc:	fea43423          	sd	a0,-24(s0)
   10be0:	000277b7          	lui	a5,0x27
   10be4:	2a07b783          	ld	a5,672(a5) # 272a0 <Ptr_Glob>
   10be8:	00078c63          	beqz	a5,10c00 <Proc_3+0x34>
   10bec:	000277b7          	lui	a5,0x27
   10bf0:	2a07b783          	ld	a5,672(a5) # 272a0 <Ptr_Glob>
   10bf4:	0007b703          	ld	a4,0(a5)
   10bf8:	fe843783          	ld	a5,-24(s0)
   10bfc:	00e7b023          	sd	a4,0(a5)
   10c00:	000277b7          	lui	a5,0x27
   10c04:	2987a703          	lw	a4,664(a5) # 27298 <Int_Glob>
   10c08:	000277b7          	lui	a5,0x27
   10c0c:	2a07b783          	ld	a5,672(a5) # 272a0 <Ptr_Glob>
   10c10:	01078793          	addi	a5,a5,16
   10c14:	00078613          	mv	a2,a5
   10c18:	00070593          	mv	a1,a4
   10c1c:	00a00513          	li	a0,10
   10c20:	188000ef          	jal	10da8 <Proc_7>
   10c24:	00000013          	nop
   10c28:	00078513          	mv	a0,a5
   10c2c:	01813083          	ld	ra,24(sp)
   10c30:	01013403          	ld	s0,16(sp)
   10c34:	02010113          	addi	sp,sp,32
   10c38:	00008067          	ret

0000000000010c3c <Proc_4>:
   10c3c:	fe010113          	addi	sp,sp,-32
   10c40:	00813c23          	sd	s0,24(sp)
   10c44:	02010413          	addi	s0,sp,32
   10c48:	000277b7          	lui	a5,0x27
   10c4c:	29c7c783          	lbu	a5,668(a5) # 2729c <Ch_1_Glob>
   10c50:	fbf7879b          	addiw	a5,a5,-65
   10c54:	0017b793          	seqz	a5,a5
   10c58:	0ff7f793          	andi	a5,a5,255
   10c5c:	fef42623          	sw	a5,-20(s0)
   10c60:	000277b7          	lui	a5,0x27
   10c64:	3707a703          	lw	a4,880(a5) # 27370 <Bool_Glob>
   10c68:	fec42783          	lw	a5,-20(s0)
   10c6c:	00f76733          	or	a4,a4,a5
   10c70:	000277b7          	lui	a5,0x27
   10c74:	36e7a823          	sw	a4,880(a5) # 27370 <Bool_Glob>
   10c78:	000277b7          	lui	a5,0x27
   10c7c:	04200713          	li	a4,66
   10c80:	28e78ea3          	sb	a4,669(a5) # 2729d <Ch_2_Glob>
   10c84:	00000013          	nop
   10c88:	00078513          	mv	a0,a5
   10c8c:	01813403          	ld	s0,24(sp)
   10c90:	02010113          	addi	sp,sp,32
   10c94:	00008067          	ret

0000000000010c98 <Proc_5>:
   10c98:	ff010113          	addi	sp,sp,-16
   10c9c:	00813423          	sd	s0,8(sp)
   10ca0:	01010413          	addi	s0,sp,16
   10ca4:	000277b7          	lui	a5,0x27
   10ca8:	04100713          	li	a4,65
   10cac:	28e78e23          	sb	a4,668(a5) # 2729c <Ch_1_Glob>
   10cb0:	000277b7          	lui	a5,0x27
   10cb4:	3607a823          	sw	zero,880(a5) # 27370 <Bool_Glob>
   10cb8:	00000013          	nop
   10cbc:	00078513          	mv	a0,a5
   10cc0:	00813403          	ld	s0,8(sp)
   10cc4:	01010113          	addi	sp,sp,16
   10cc8:	00008067          	ret

0000000000010ccc <Proc_6>:
   10ccc:	fe010113          	addi	sp,sp,-32
   10cd0:	00113c23          	sd	ra,24(sp)
   10cd4:	00813823          	sd	s0,16(sp)
   10cd8:	02010413          	addi	s0,sp,32
   10cdc:	fea42623          	sw	a0,-20(s0)
   10ce0:	feb43023          	sd	a1,-32(s0)
   10ce4:	fe043783          	ld	a5,-32(s0)
   10ce8:	fec42703          	lw	a4,-20(s0)
   10cec:	00e7a023          	sw	a4,0(a5)
   10cf0:	fec42503          	lw	a0,-20(s0)
   10cf4:	3f4000ef          	jal	110e8 <Func_3>
   10cf8:	00050793          	mv	a5,a0
   10cfc:	00079863          	bnez	a5,10d0c <Proc_6+0x40>
   10d00:	fe043783          	ld	a5,-32(s0)
   10d04:	00300713          	li	a4,3
   10d08:	00e7a023          	sw	a4,0(a5)
   10d0c:	fec42703          	lw	a4,-20(s0)
   10d10:	00400793          	li	a5,4
   10d14:	06e7ee63          	bltu	a5,a4,10d90 <Proc_6+0xc4>
   10d18:	fec46783          	lwu	a5,-20(s0)
   10d1c:	00279713          	slli	a4,a5,0x2
   10d20:	000217b7          	lui	a5,0x21
   10d24:	34078793          	addi	a5,a5,832 # 21340 <sulp+0x6c4>
   10d28:	00f707b3          	add	a5,a4,a5
   10d2c:	0007a783          	lw	a5,0(a5)
   10d30:	00078067          	jr	a5
   10d34:	fe043783          	ld	a5,-32(s0)
   10d38:	0007a023          	sw	zero,0(a5)
   10d3c:	0540006f          	j	10d90 <Proc_6+0xc4>
   10d40:	000277b7          	lui	a5,0x27
   10d44:	2987a703          	lw	a4,664(a5) # 27298 <Int_Glob>
   10d48:	06400793          	li	a5,100
   10d4c:	00e7d863          	ble	a4,a5,10d5c <Proc_6+0x90>
   10d50:	fe043783          	ld	a5,-32(s0)
   10d54:	0007a023          	sw	zero,0(a5)
   10d58:	0380006f          	j	10d90 <Proc_6+0xc4>
   10d5c:	fe043783          	ld	a5,-32(s0)
   10d60:	00300713          	li	a4,3
   10d64:	00e7a023          	sw	a4,0(a5)
   10d68:	0280006f          	j	10d90 <Proc_6+0xc4>
   10d6c:	fe043783          	ld	a5,-32(s0)
   10d70:	00100713          	li	a4,1
   10d74:	00e7a023          	sw	a4,0(a5)
   10d78:	0180006f          	j	10d90 <Proc_6+0xc4>
   10d7c:	fe043783          	ld	a5,-32(s0)
   10d80:	00200713          	li	a4,2
   10d84:	00e7a023          	sw	a4,0(a5)
   10d88:	0080006f          	j	10d90 <Proc_6+0xc4>
   10d8c:	00000013          	nop
   10d90:	00000013          	nop
   10d94:	00078513          	mv	a0,a5
   10d98:	01813083          	ld	ra,24(sp)
   10d9c:	01013403          	ld	s0,16(sp)
   10da0:	02010113          	addi	sp,sp,32
   10da4:	00008067          	ret

0000000000010da8 <Proc_7>:
   10da8:	fd010113          	addi	sp,sp,-48
   10dac:	02813423          	sd	s0,40(sp)
   10db0:	03010413          	addi	s0,sp,48
   10db4:	fca42e23          	sw	a0,-36(s0)
   10db8:	fcb42c23          	sw	a1,-40(s0)
   10dbc:	fcc43823          	sd	a2,-48(s0)
   10dc0:	fdc42783          	lw	a5,-36(s0)
   10dc4:	0027879b          	addiw	a5,a5,2
   10dc8:	fef42623          	sw	a5,-20(s0)
   10dcc:	fd842703          	lw	a4,-40(s0)
   10dd0:	fec42783          	lw	a5,-20(s0)
   10dd4:	00f7073b          	addw	a4,a4,a5
   10dd8:	fd043783          	ld	a5,-48(s0)
   10ddc:	00e7a023          	sw	a4,0(a5)
   10de0:	00000013          	nop
   10de4:	00078513          	mv	a0,a5
   10de8:	02813403          	ld	s0,40(sp)
   10dec:	03010113          	addi	sp,sp,48
   10df0:	00008067          	ret

0000000000010df4 <Proc_8>:
   10df4:	fc010113          	addi	sp,sp,-64
   10df8:	02813c23          	sd	s0,56(sp)
   10dfc:	04010413          	addi	s0,sp,64
   10e00:	fca43c23          	sd	a0,-40(s0)
   10e04:	fcb43823          	sd	a1,-48(s0)
   10e08:	fcc42623          	sw	a2,-52(s0)
   10e0c:	fcd42423          	sw	a3,-56(s0)
   10e10:	fcc42783          	lw	a5,-52(s0)
   10e14:	0057879b          	addiw	a5,a5,5
   10e18:	fef42423          	sw	a5,-24(s0)
   10e1c:	fe842783          	lw	a5,-24(s0)
   10e20:	00279793          	slli	a5,a5,0x2
   10e24:	fd843703          	ld	a4,-40(s0)
   10e28:	00f707b3          	add	a5,a4,a5
   10e2c:	fc842703          	lw	a4,-56(s0)
   10e30:	00e7a023          	sw	a4,0(a5)
   10e34:	fe842783          	lw	a5,-24(s0)
   10e38:	00178793          	addi	a5,a5,1
   10e3c:	00279793          	slli	a5,a5,0x2
   10e40:	fd843703          	ld	a4,-40(s0)
   10e44:	00f707b3          	add	a5,a4,a5
   10e48:	fe842703          	lw	a4,-24(s0)
   10e4c:	00271713          	slli	a4,a4,0x2
   10e50:	fd843683          	ld	a3,-40(s0)
   10e54:	00e68733          	add	a4,a3,a4
   10e58:	00072703          	lw	a4,0(a4)
   10e5c:	00e7a023          	sw	a4,0(a5)
   10e60:	fe842783          	lw	a5,-24(s0)
   10e64:	01e78793          	addi	a5,a5,30
   10e68:	00279793          	slli	a5,a5,0x2
   10e6c:	fd843703          	ld	a4,-40(s0)
   10e70:	00f707b3          	add	a5,a4,a5
   10e74:	fe842703          	lw	a4,-24(s0)
   10e78:	00e7a023          	sw	a4,0(a5)
   10e7c:	fe842783          	lw	a5,-24(s0)
   10e80:	fef42623          	sw	a5,-20(s0)
   10e84:	0380006f          	j	10ebc <Proc_8+0xc8>
   10e88:	fe842703          	lw	a4,-24(s0)
   10e8c:	0c800793          	li	a5,200
   10e90:	02f707b3          	mul	a5,a4,a5
   10e94:	fd043703          	ld	a4,-48(s0)
   10e98:	00f70733          	add	a4,a4,a5
   10e9c:	fec42783          	lw	a5,-20(s0)
   10ea0:	00279793          	slli	a5,a5,0x2
   10ea4:	00f707b3          	add	a5,a4,a5
   10ea8:	fe842703          	lw	a4,-24(s0)
   10eac:	00e7a023          	sw	a4,0(a5)
   10eb0:	fec42783          	lw	a5,-20(s0)
   10eb4:	0017879b          	addiw	a5,a5,1
   10eb8:	fef42623          	sw	a5,-20(s0)
   10ebc:	fe842783          	lw	a5,-24(s0)
   10ec0:	0017871b          	addiw	a4,a5,1
   10ec4:	fec42783          	lw	a5,-20(s0)
   10ec8:	fcf750e3          	ble	a5,a4,10e88 <Proc_8+0x94>
   10ecc:	fe842703          	lw	a4,-24(s0)
   10ed0:	0c800793          	li	a5,200
   10ed4:	02f707b3          	mul	a5,a4,a5
   10ed8:	fd043703          	ld	a4,-48(s0)
   10edc:	00f706b3          	add	a3,a4,a5
   10ee0:	fe842783          	lw	a5,-24(s0)
   10ee4:	fff7861b          	addiw	a2,a5,-1
   10ee8:	fe842703          	lw	a4,-24(s0)
   10eec:	0c800793          	li	a5,200
   10ef0:	02f707b3          	mul	a5,a4,a5
   10ef4:	fd043703          	ld	a4,-48(s0)
   10ef8:	00f70733          	add	a4,a4,a5
   10efc:	fe842783          	lw	a5,-24(s0)
   10f00:	fff7879b          	addiw	a5,a5,-1
   10f04:	00279793          	slli	a5,a5,0x2
   10f08:	00f707b3          	add	a5,a4,a5
   10f0c:	0007a783          	lw	a5,0(a5)
   10f10:	0017871b          	addiw	a4,a5,1
   10f14:	00060793          	mv	a5,a2
   10f18:	00279793          	slli	a5,a5,0x2
   10f1c:	00f687b3          	add	a5,a3,a5
   10f20:	00e7a023          	sw	a4,0(a5)
   10f24:	fe842703          	lw	a4,-24(s0)
   10f28:	0c800793          	li	a5,200
   10f2c:	02f70733          	mul	a4,a4,a5
   10f30:	000017b7          	lui	a5,0x1
   10f34:	fa078793          	addi	a5,a5,-96 # fa0 <_ftext-0xf060>
   10f38:	00f707b3          	add	a5,a4,a5
   10f3c:	fd043703          	ld	a4,-48(s0)
   10f40:	00f706b3          	add	a3,a4,a5
   10f44:	fe842783          	lw	a5,-24(s0)
   10f48:	00279793          	slli	a5,a5,0x2
   10f4c:	fd843703          	ld	a4,-40(s0)
   10f50:	00f707b3          	add	a5,a4,a5
   10f54:	0007a703          	lw	a4,0(a5)
   10f58:	fe842783          	lw	a5,-24(s0)
   10f5c:	00279793          	slli	a5,a5,0x2
   10f60:	00f687b3          	add	a5,a3,a5
   10f64:	00e7a023          	sw	a4,0(a5)
   10f68:	000277b7          	lui	a5,0x27
   10f6c:	00500713          	li	a4,5
   10f70:	28e7ac23          	sw	a4,664(a5) # 27298 <Int_Glob>
   10f74:	00000013          	nop
   10f78:	00078513          	mv	a0,a5
   10f7c:	03813403          	ld	s0,56(sp)
   10f80:	04010113          	addi	sp,sp,64
   10f84:	00008067          	ret

0000000000010f88 <Func_1>:
   10f88:	fd010113          	addi	sp,sp,-48
   10f8c:	02813423          	sd	s0,40(sp)
   10f90:	03010413          	addi	s0,sp,48
   10f94:	00050713          	mv	a4,a0
   10f98:	00058793          	mv	a5,a1
   10f9c:	fce40e23          	sb	a4,-36(s0)
   10fa0:	fcf40c23          	sb	a5,-40(s0)
   10fa4:	fdc44783          	lbu	a5,-36(s0)
   10fa8:	fef407a3          	sb	a5,-17(s0)
   10fac:	fef44783          	lbu	a5,-17(s0)
   10fb0:	fef40723          	sb	a5,-18(s0)
   10fb4:	fee44703          	lbu	a4,-18(s0)
   10fb8:	fd844783          	lbu	a5,-40(s0)
   10fbc:	00f70663          	beq	a4,a5,10fc8 <Func_1+0x40>
   10fc0:	00000793          	li	a5,0
   10fc4:	0140006f          	j	10fd8 <Func_1+0x50>
   10fc8:	000277b7          	lui	a5,0x27
   10fcc:	fef44703          	lbu	a4,-17(s0)
   10fd0:	28e78e23          	sb	a4,668(a5) # 2729c <Ch_1_Glob>
   10fd4:	00100793          	li	a5,1
   10fd8:	00078513          	mv	a0,a5
   10fdc:	02813403          	ld	s0,40(sp)
   10fe0:	03010113          	addi	sp,sp,48
   10fe4:	00008067          	ret

0000000000010fe8 <Func_2>:
   10fe8:	fd010113          	addi	sp,sp,-48
   10fec:	02113423          	sd	ra,40(sp)
   10ff0:	02813023          	sd	s0,32(sp)
   10ff4:	03010413          	addi	s0,sp,48
   10ff8:	fca43c23          	sd	a0,-40(s0)
   10ffc:	fcb43823          	sd	a1,-48(s0)
   11000:	00200793          	li	a5,2
   11004:	fef42623          	sw	a5,-20(s0)
   11008:	0540006f          	j	1105c <Func_2+0x74>
   1100c:	fec42783          	lw	a5,-20(s0)
   11010:	fd843703          	ld	a4,-40(s0)
   11014:	00f707b3          	add	a5,a4,a5
   11018:	0007c783          	lbu	a5,0(a5)
   1101c:	00078693          	mv	a3,a5
   11020:	fec42783          	lw	a5,-20(s0)
   11024:	00178793          	addi	a5,a5,1
   11028:	fd043703          	ld	a4,-48(s0)
   1102c:	00f707b3          	add	a5,a4,a5
   11030:	0007c783          	lbu	a5,0(a5)
   11034:	00078593          	mv	a1,a5
   11038:	00068513          	mv	a0,a3
   1103c:	f4dff0ef          	jal	10f88 <Func_1>
   11040:	00050793          	mv	a5,a0
   11044:	00079c63          	bnez	a5,1105c <Func_2+0x74>
   11048:	04100793          	li	a5,65
   1104c:	fef405a3          	sb	a5,-21(s0)
   11050:	fec42783          	lw	a5,-20(s0)
   11054:	0017879b          	addiw	a5,a5,1
   11058:	fef42623          	sw	a5,-20(s0)
   1105c:	fec42703          	lw	a4,-20(s0)
   11060:	00200793          	li	a5,2
   11064:	fae7d4e3          	ble	a4,a5,1100c <Func_2+0x24>
   11068:	feb44703          	lbu	a4,-21(s0)
   1106c:	05600793          	li	a5,86
   11070:	00e7fc63          	bleu	a4,a5,11088 <Func_2+0xa0>
   11074:	feb44703          	lbu	a4,-21(s0)
   11078:	05900793          	li	a5,89
   1107c:	00e7e663          	bltu	a5,a4,11088 <Func_2+0xa0>
   11080:	00700793          	li	a5,7
   11084:	fef42623          	sw	a5,-20(s0)
   11088:	feb44703          	lbu	a4,-21(s0)
   1108c:	05200793          	li	a5,82
   11090:	00f71663          	bne	a4,a5,1109c <Func_2+0xb4>
   11094:	00100793          	li	a5,1
   11098:	03c0006f          	j	110d4 <Func_2+0xec>
   1109c:	fd043583          	ld	a1,-48(s0)
   110a0:	fd843503          	ld	a0,-40(s0)
   110a4:	5d5000ef          	jal	11e78 <strcmp>
   110a8:	00050793          	mv	a5,a0
   110ac:	02f05263          	blez	a5,110d0 <Func_2+0xe8>
   110b0:	fec42783          	lw	a5,-20(s0)
   110b4:	0077879b          	addiw	a5,a5,7
   110b8:	fef42623          	sw	a5,-20(s0)
   110bc:	000277b7          	lui	a5,0x27
   110c0:	fec42703          	lw	a4,-20(s0)
   110c4:	28e7ac23          	sw	a4,664(a5) # 27298 <Int_Glob>
   110c8:	00100793          	li	a5,1
   110cc:	0080006f          	j	110d4 <Func_2+0xec>
   110d0:	00000793          	li	a5,0
   110d4:	00078513          	mv	a0,a5
   110d8:	02813083          	ld	ra,40(sp)
   110dc:	02013403          	ld	s0,32(sp)
   110e0:	03010113          	addi	sp,sp,48
   110e4:	00008067          	ret

00000000000110e8 <Func_3>:
   110e8:	fd010113          	addi	sp,sp,-48
   110ec:	02813423          	sd	s0,40(sp)
   110f0:	03010413          	addi	s0,sp,48
   110f4:	fca42e23          	sw	a0,-36(s0)
   110f8:	fdc42783          	lw	a5,-36(s0)
   110fc:	fef42623          	sw	a5,-20(s0)
   11100:	fec42703          	lw	a4,-20(s0)
   11104:	00200793          	li	a5,2
   11108:	00f71663          	bne	a4,a5,11114 <Func_3+0x2c>
   1110c:	00100793          	li	a5,1
   11110:	0080006f          	j	11118 <Func_3+0x30>
   11114:	00000793          	li	a5,0
   11118:	00078513          	mv	a0,a5
   1111c:	02813403          	ld	s0,40(sp)
   11120:	03010113          	addi	sp,sp,48
   11124:	00008067          	ret

0000000000011128 <atexit>:
   11128:	00050593          	mv	a1,a0
   1112c:	00000693          	li	a3,0
   11130:	00000613          	li	a2,0
   11134:	00000513          	li	a0,0
   11138:	17c0406f          	j	152b4 <__register_exitproc>

000000000001113c <exit>:
   1113c:	ff010113          	addi	sp,sp,-16
   11140:	00000593          	li	a1,0
   11144:	00813023          	sd	s0,0(sp)
   11148:	00113423          	sd	ra,8(sp)
   1114c:	00050413          	mv	s0,a0
   11150:	274040ef          	jal	153c4 <__call_exitprocs>
   11154:	8081b503          	ld	a0,-2040(gp) # 249d8 <_global_impure_ptr>
   11158:	05853783          	ld	a5,88(a0)
   1115c:	00078463          	beqz	a5,11164 <exit+0x28>
   11160:	000780e7          	jalr	a5
   11164:	00040513          	mv	a0,s0
   11168:	2f10f0ef          	jal	20c58 <_exit>

000000000001116c <__libc_fini_array>:
   1116c:	fe010113          	addi	sp,sp,-32
   11170:	00813823          	sd	s0,16(sp)
   11174:	00913423          	sd	s1,8(sp)
   11178:	00022437          	lui	s0,0x22
   1117c:	000224b7          	lui	s1,0x22
   11180:	31848493          	addi	s1,s1,792 # 22318 <__init_array_end>
   11184:	32040413          	addi	s0,s0,800 # 22320 <__fini_array_end>
   11188:	40940433          	sub	s0,s0,s1
   1118c:	ff840793          	addi	a5,s0,-8
   11190:	00113c23          	sd	ra,24(sp)
   11194:	40345413          	srai	s0,s0,0x3
   11198:	009784b3          	add	s1,a5,s1
   1119c:	00040c63          	beqz	s0,111b4 <__libc_fini_array+0x48>
   111a0:	0004b783          	ld	a5,0(s1)
   111a4:	fff40413          	addi	s0,s0,-1
   111a8:	ff848493          	addi	s1,s1,-8
   111ac:	000780e7          	jalr	a5
   111b0:	fe0418e3          	bnez	s0,111a0 <__libc_fini_array+0x34>
   111b4:	01813083          	ld	ra,24(sp)
   111b8:	01013403          	ld	s0,16(sp)
   111bc:	00813483          	ld	s1,8(sp)
   111c0:	02010113          	addi	sp,sp,32
   111c4:	e85fe06f          	j	10048 <_fini>

00000000000111c8 <__libc_init_array>:
   111c8:	fe010113          	addi	sp,sp,-32
   111cc:	00813823          	sd	s0,16(sp)
   111d0:	000227b7          	lui	a5,0x22
   111d4:	00022437          	lui	s0,0x22
   111d8:	01213023          	sd	s2,0(sp)
   111dc:	31078793          	addi	a5,a5,784 # 22310 <_etext>
   111e0:	31040913          	addi	s2,s0,784 # 22310 <_etext>
   111e4:	41278933          	sub	s2,a5,s2
   111e8:	00913423          	sd	s1,8(sp)
   111ec:	00113c23          	sd	ra,24(sp)
   111f0:	40395913          	srai	s2,s2,0x3
   111f4:	31040413          	addi	s0,s0,784
   111f8:	00000493          	li	s1,0
   111fc:	00090c63          	beqz	s2,11214 <__libc_init_array+0x4c>
   11200:	00043783          	ld	a5,0(s0)
   11204:	00148493          	addi	s1,s1,1
   11208:	00840413          	addi	s0,s0,8
   1120c:	000780e7          	jalr	a5
   11210:	fe9918e3          	bne	s2,s1,11200 <__libc_init_array+0x38>
   11214:	e35fe0ef          	jal	10048 <_fini>
   11218:	00022437          	lui	s0,0x22
   1121c:	000227b7          	lui	a5,0x22
   11220:	31040913          	addi	s2,s0,784 # 22310 <_etext>
   11224:	31878793          	addi	a5,a5,792 # 22318 <__init_array_end>
   11228:	41278933          	sub	s2,a5,s2
   1122c:	40395913          	srai	s2,s2,0x3
   11230:	31040413          	addi	s0,s0,784
   11234:	00000493          	li	s1,0
   11238:	00090c63          	beqz	s2,11250 <__libc_init_array+0x88>
   1123c:	00043783          	ld	a5,0(s0)
   11240:	00148493          	addi	s1,s1,1
   11244:	00840413          	addi	s0,s0,8
   11248:	000780e7          	jalr	a5
   1124c:	fe9918e3          	bne	s2,s1,1123c <__libc_init_array+0x74>
   11250:	01813083          	ld	ra,24(sp)
   11254:	01013403          	ld	s0,16(sp)
   11258:	00813483          	ld	s1,8(sp)
   1125c:	00013903          	ld	s2,0(sp)
   11260:	02010113          	addi	sp,sp,32
   11264:	00008067          	ret

0000000000011268 <malloc>:
   11268:	00050593          	mv	a1,a0
   1126c:	8101b503          	ld	a0,-2032(gp) # 249e0 <_impure_ptr>
   11270:	0100006f          	j	11280 <_malloc_r>

0000000000011274 <free>:
   11274:	00050593          	mv	a1,a0
   11278:	8101b503          	ld	a0,-2032(gp) # 249e0 <_impure_ptr>
   1127c:	79d0506f          	j	17218 <_free_r>

0000000000011280 <_malloc_r>:
   11280:	fa010113          	addi	sp,sp,-96
   11284:	04913423          	sd	s1,72(sp)
   11288:	03313c23          	sd	s3,56(sp)
   1128c:	04113c23          	sd	ra,88(sp)
   11290:	04813823          	sd	s0,80(sp)
   11294:	05213023          	sd	s2,64(sp)
   11298:	03413823          	sd	s4,48(sp)
   1129c:	03513423          	sd	s5,40(sp)
   112a0:	03613023          	sd	s6,32(sp)
   112a4:	01713c23          	sd	s7,24(sp)
   112a8:	01813823          	sd	s8,16(sp)
   112ac:	01913423          	sd	s9,8(sp)
   112b0:	01758493          	addi	s1,a1,23
   112b4:	02e00793          	li	a5,46
   112b8:	00050993          	mv	s3,a0
   112bc:	1c97fa63          	bleu	s1,a5,11490 <_malloc_r+0x210>
   112c0:	800007b7          	lui	a5,0x80000
   112c4:	ff04f493          	andi	s1,s1,-16
   112c8:	fff7c793          	not	a5,a5
   112cc:	2497ee63          	bltu	a5,s1,11528 <_malloc_r+0x2a8>
   112d0:	24b4ec63          	bltu	s1,a1,11528 <_malloc_r+0x2a8>
   112d4:	03d000ef          	jal	11b10 <__malloc_lock>
   112d8:	1f700793          	li	a5,503
   112dc:	7097f063          	bleu	s1,a5,119dc <_malloc_r+0x75c>
   112e0:	0094d793          	srli	a5,s1,0x9
   112e4:	08000693          	li	a3,128
   112e8:	04000513          	li	a0,64
   112ec:	03f00593          	li	a1,63
   112f0:	24079463          	bnez	a5,11538 <_malloc_r+0x2b8>
   112f4:	00024937          	lui	s2,0x24
   112f8:	11890913          	addi	s2,s2,280 # 24118 <__malloc_av_>
   112fc:	00369693          	slli	a3,a3,0x3
   11300:	00d906b3          	add	a3,s2,a3
   11304:	0086b403          	ld	s0,8(a3)
   11308:	ff068693          	addi	a3,a3,-16
   1130c:	24868663          	beq	a3,s0,11558 <_malloc_r+0x2d8>
   11310:	00843783          	ld	a5,8(s0)
   11314:	01f00613          	li	a2,31
   11318:	ffc7f793          	andi	a5,a5,-4
   1131c:	40978733          	sub	a4,a5,s1
   11320:	02e64063          	blt	a2,a4,11340 <_malloc_r+0xc0>
   11324:	22075e63          	bgez	a4,11560 <_malloc_r+0x2e0>
   11328:	01843403          	ld	s0,24(s0)
   1132c:	22868663          	beq	a3,s0,11558 <_malloc_r+0x2d8>
   11330:	00843783          	ld	a5,8(s0)
   11334:	ffc7f793          	andi	a5,a5,-4
   11338:	40978733          	sub	a4,a5,s1
   1133c:	fee654e3          	ble	a4,a2,11324 <_malloc_r+0xa4>
   11340:	00058693          	mv	a3,a1
   11344:	02093403          	ld	s0,32(s2)
   11348:	01090813          	addi	a6,s2,16
   1134c:	47040a63          	beq	s0,a6,117c0 <_malloc_r+0x540>
   11350:	00843783          	ld	a5,8(s0)
   11354:	01f00613          	li	a2,31
   11358:	ffc7f793          	andi	a5,a5,-4
   1135c:	40978733          	sub	a4,a5,s1
   11360:	44e64a63          	blt	a2,a4,117b4 <_malloc_r+0x534>
   11364:	03093423          	sd	a6,40(s2)
   11368:	03093023          	sd	a6,32(s2)
   1136c:	20075063          	bgez	a4,1156c <_malloc_r+0x2ec>
   11370:	1ff00713          	li	a4,511
   11374:	3cf76c63          	bltu	a4,a5,1174c <_malloc_r+0x4cc>
   11378:	0037d793          	srli	a5,a5,0x3
   1137c:	0007879b          	sext.w	a5,a5
   11380:	0017861b          	addiw	a2,a5,1
   11384:	0016161b          	slliw	a2,a2,0x1
   11388:	00361613          	slli	a2,a2,0x3
   1138c:	00893703          	ld	a4,8(s2)
   11390:	00c90633          	add	a2,s2,a2
   11394:	00063503          	ld	a0,0(a2)
   11398:	4027d79b          	sraiw	a5,a5,0x2
   1139c:	00100593          	li	a1,1
   113a0:	00f597b3          	sll	a5,a1,a5
   113a4:	00e7e7b3          	or	a5,a5,a4
   113a8:	ff060713          	addi	a4,a2,-16
   113ac:	00e43c23          	sd	a4,24(s0)
   113b0:	00a43823          	sd	a0,16(s0)
   113b4:	00f93423          	sd	a5,8(s2)
   113b8:	00863023          	sd	s0,0(a2)
   113bc:	00853c23          	sd	s0,24(a0)
   113c0:	4026d61b          	sraiw	a2,a3,0x2
   113c4:	00100713          	li	a4,1
   113c8:	00c71633          	sll	a2,a4,a2
   113cc:	1cc7e063          	bltu	a5,a2,1158c <_malloc_r+0x30c>
   113d0:	00f67733          	and	a4,a2,a5
   113d4:	02071463          	bnez	a4,113fc <_malloc_r+0x17c>
   113d8:	00161613          	slli	a2,a2,0x1
   113dc:	ffc6f693          	andi	a3,a3,-4
   113e0:	00f67733          	and	a4,a2,a5
   113e4:	0046869b          	addiw	a3,a3,4
   113e8:	00071a63          	bnez	a4,113fc <_malloc_r+0x17c>
   113ec:	00161613          	slli	a2,a2,0x1
   113f0:	00f67733          	and	a4,a2,a5
   113f4:	0046869b          	addiw	a3,a3,4
   113f8:	fe070ae3          	beqz	a4,113ec <_malloc_r+0x16c>
   113fc:	01f00513          	li	a0,31
   11400:	0016889b          	addiw	a7,a3,1
   11404:	0018989b          	slliw	a7,a7,0x1
   11408:	00389893          	slli	a7,a7,0x3
   1140c:	011908b3          	add	a7,s2,a7
   11410:	ff088893          	addi	a7,a7,-16
   11414:	00088593          	mv	a1,a7
   11418:	00068313          	mv	t1,a3
   1141c:	0185b403          	ld	s0,24(a1)
   11420:	00859a63          	bne	a1,s0,11434 <_malloc_r+0x1b4>
   11424:	3a40006f          	j	117c8 <_malloc_r+0x548>
   11428:	3c075263          	bgez	a4,117ec <_malloc_r+0x56c>
   1142c:	01843403          	ld	s0,24(s0)
   11430:	38858c63          	beq	a1,s0,117c8 <_malloc_r+0x548>
   11434:	00843783          	ld	a5,8(s0)
   11438:	ffc7f793          	andi	a5,a5,-4
   1143c:	40978733          	sub	a4,a5,s1
   11440:	fee554e3          	ble	a4,a0,11428 <_malloc_r+0x1a8>
   11444:	01843783          	ld	a5,24(s0)
   11448:	01043683          	ld	a3,16(s0)
   1144c:	0014e613          	ori	a2,s1,1
   11450:	00c43423          	sd	a2,8(s0)
   11454:	00f6bc23          	sd	a5,24(a3)
   11458:	00d7b823          	sd	a3,16(a5) # ffffffff80000010 <_end+0xffffffff7ffd8c98>
   1145c:	009404b3          	add	s1,s0,s1
   11460:	02993423          	sd	s1,40(s2)
   11464:	02993023          	sd	s1,32(s2)
   11468:	00176793          	ori	a5,a4,1
   1146c:	0104bc23          	sd	a6,24(s1)
   11470:	0104b823          	sd	a6,16(s1)
   11474:	00f4b423          	sd	a5,8(s1)
   11478:	00e484b3          	add	s1,s1,a4
   1147c:	00098513          	mv	a0,s3
   11480:	00e4b023          	sd	a4,0(s1)
   11484:	690000ef          	jal	11b14 <__malloc_unlock>
   11488:	01040513          	addi	a0,s0,16
   1148c:	0680006f          	j	114f4 <_malloc_r+0x274>
   11490:	02000493          	li	s1,32
   11494:	08b4ea63          	bltu	s1,a1,11528 <_malloc_r+0x2a8>
   11498:	678000ef          	jal	11b10 <__malloc_lock>
   1149c:	00a00793          	li	a5,10
   114a0:	00400693          	li	a3,4
   114a4:	00024937          	lui	s2,0x24
   114a8:	11890913          	addi	s2,s2,280 # 24118 <__malloc_av_>
   114ac:	00379793          	slli	a5,a5,0x3
   114b0:	00f907b3          	add	a5,s2,a5
   114b4:	0087b403          	ld	s0,8(a5)
   114b8:	ff078713          	addi	a4,a5,-16
   114bc:	32e40063          	beq	s0,a4,117dc <_malloc_r+0x55c>
   114c0:	00843783          	ld	a5,8(s0)
   114c4:	01843683          	ld	a3,24(s0)
   114c8:	01043603          	ld	a2,16(s0)
   114cc:	ffc7f793          	andi	a5,a5,-4
   114d0:	00f407b3          	add	a5,s0,a5
   114d4:	0087b703          	ld	a4,8(a5)
   114d8:	00d63c23          	sd	a3,24(a2)
   114dc:	00c6b823          	sd	a2,16(a3)
   114e0:	00176713          	ori	a4,a4,1
   114e4:	00098513          	mv	a0,s3
   114e8:	00e7b423          	sd	a4,8(a5)
   114ec:	628000ef          	jal	11b14 <__malloc_unlock>
   114f0:	01040513          	addi	a0,s0,16
   114f4:	05813083          	ld	ra,88(sp)
   114f8:	05013403          	ld	s0,80(sp)
   114fc:	04813483          	ld	s1,72(sp)
   11500:	04013903          	ld	s2,64(sp)
   11504:	03813983          	ld	s3,56(sp)
   11508:	03013a03          	ld	s4,48(sp)
   1150c:	02813a83          	ld	s5,40(sp)
   11510:	02013b03          	ld	s6,32(sp)
   11514:	01813b83          	ld	s7,24(sp)
   11518:	01013c03          	ld	s8,16(sp)
   1151c:	00813c83          	ld	s9,8(sp)
   11520:	06010113          	addi	sp,sp,96
   11524:	00008067          	ret
   11528:	00c00793          	li	a5,12
   1152c:	00f9a023          	sw	a5,0(s3)
   11530:	00000513          	li	a0,0
   11534:	fc1ff06f          	j	114f4 <_malloc_r+0x274>
   11538:	00400713          	li	a4,4
   1153c:	1ef76463          	bltu	a4,a5,11724 <_malloc_r+0x4a4>
   11540:	0064d593          	srli	a1,s1,0x6
   11544:	0005859b          	sext.w	a1,a1
   11548:	0395851b          	addiw	a0,a1,57
   1154c:	0015169b          	slliw	a3,a0,0x1
   11550:	0385859b          	addiw	a1,a1,56
   11554:	da1ff06f          	j	112f4 <_malloc_r+0x74>
   11558:	00050693          	mv	a3,a0
   1155c:	de9ff06f          	j	11344 <_malloc_r+0xc4>
   11560:	01843683          	ld	a3,24(s0)
   11564:	01043603          	ld	a2,16(s0)
   11568:	f69ff06f          	j	114d0 <_malloc_r+0x250>
   1156c:	00f407b3          	add	a5,s0,a5
   11570:	0087b703          	ld	a4,8(a5)
   11574:	00098513          	mv	a0,s3
   11578:	00176713          	ori	a4,a4,1
   1157c:	00e7b423          	sd	a4,8(a5)
   11580:	594000ef          	jal	11b14 <__malloc_unlock>
   11584:	01040513          	addi	a0,s0,16
   11588:	f6dff06f          	j	114f4 <_malloc_r+0x274>
   1158c:	01093403          	ld	s0,16(s2)
   11590:	00843703          	ld	a4,8(s0)
   11594:	ffc77b93          	andi	s7,a4,-4
   11598:	009be863          	bltu	s7,s1,115a8 <_malloc_r+0x328>
   1159c:	409b87b3          	sub	a5,s7,s1
   115a0:	01f00713          	li	a4,31
   115a4:	14f74c63          	blt	a4,a5,116fc <_malloc_r+0x47c>
   115a8:	9001b783          	ld	a5,-1792(gp) # 24ad0 <__malloc_top_pad>
   115ac:	8181b683          	ld	a3,-2024(gp) # 249e8 <__malloc_sbrk_base>
   115b0:	fff00713          	li	a4,-1
   115b4:	00f487b3          	add	a5,s1,a5
   115b8:	01740a33          	add	s4,s0,s7
   115bc:	02078b13          	addi	s6,a5,32
   115c0:	00e68c63          	beq	a3,a4,115d8 <_malloc_r+0x358>
   115c4:	00001b37          	lui	s6,0x1
   115c8:	01fb0b13          	addi	s6,s6,31 # 101f <_ftext-0xefe1>
   115cc:	01678b33          	add	s6,a5,s6
   115d0:	fffff7b7          	lui	a5,0xfffff
   115d4:	00fb7b33          	and	s6,s6,a5
   115d8:	000b0513          	mv	a0,s6
   115dc:	6280f0ef          	jal	20c04 <sbrk>
   115e0:	fff00793          	li	a5,-1
   115e4:	00050a93          	mv	s5,a0
   115e8:	26f50263          	beq	a0,a5,1184c <_malloc_r+0x5cc>
   115ec:	25456e63          	bltu	a0,s4,11848 <_malloc_r+0x5c8>
   115f0:	95818c13          	addi	s8,gp,-1704 # 24b28 <__malloc_current_mallinfo>
   115f4:	000c2783          	lw	a5,0(s8)
   115f8:	00fb07bb          	addw	a5,s6,a5
   115fc:	00fc2023          	sw	a5,0(s8)
   11600:	355a0463          	beq	s4,s5,11948 <_malloc_r+0x6c8>
   11604:	8181b683          	ld	a3,-2024(gp) # 249e8 <__malloc_sbrk_base>
   11608:	fff00713          	li	a4,-1
   1160c:	36e68263          	beq	a3,a4,11970 <_malloc_r+0x6f0>
   11610:	414a8a33          	sub	s4,s5,s4
   11614:	00fa07bb          	addw	a5,s4,a5
   11618:	00fc2023          	sw	a5,0(s8)
   1161c:	00faf713          	andi	a4,s5,15
   11620:	000017b7          	lui	a5,0x1
   11624:	00070a63          	beqz	a4,11638 <_malloc_r+0x3b8>
   11628:	40ea8ab3          	sub	s5,s5,a4
   1162c:	01078a13          	addi	s4,a5,16 # 1010 <_ftext-0xeff0>
   11630:	010a8a93          	addi	s5,s5,16
   11634:	40ea07b3          	sub	a5,s4,a4
   11638:	00001a37          	lui	s4,0x1
   1163c:	fffa0a13          	addi	s4,s4,-1 # fff <_ftext-0xf001>
   11640:	016a8b33          	add	s6,s5,s6
   11644:	014b7b33          	and	s6,s6,s4
   11648:	41678a33          	sub	s4,a5,s6
   1164c:	000a0513          	mv	a0,s4
   11650:	5b40f0ef          	jal	20c04 <sbrk>
   11654:	fff00793          	li	a5,-1
   11658:	30f50663          	beq	a0,a5,11964 <_malloc_r+0x6e4>
   1165c:	41550733          	sub	a4,a0,s5
   11660:	01470733          	add	a4,a4,s4
   11664:	00176713          	ori	a4,a4,1
   11668:	000a0a1b          	sext.w	s4,s4
   1166c:	000c2783          	lw	a5,0(s8)
   11670:	01593823          	sd	s5,16(s2)
   11674:	00eab423          	sd	a4,8(s5)
   11678:	00fa07bb          	addw	a5,s4,a5
   1167c:	00fc2023          	sw	a5,0(s8)
   11680:	03240c63          	beq	s0,s2,116b8 <_malloc_r+0x438>
   11684:	01f00613          	li	a2,31
   11688:	27767463          	bleu	s7,a2,118f0 <_malloc_r+0x670>
   1168c:	00843683          	ld	a3,8(s0)
   11690:	fe8b8713          	addi	a4,s7,-24
   11694:	ff077713          	andi	a4,a4,-16
   11698:	0016f693          	andi	a3,a3,1
   1169c:	00e6e6b3          	or	a3,a3,a4
   116a0:	00d43423          	sd	a3,8(s0)
   116a4:	00900593          	li	a1,9
   116a8:	00e406b3          	add	a3,s0,a4
   116ac:	00b6b423          	sd	a1,8(a3)
   116b0:	00b6b823          	sd	a1,16(a3)
   116b4:	2ce66263          	bltu	a2,a4,11978 <_malloc_r+0x6f8>
   116b8:	8f81b683          	ld	a3,-1800(gp) # 24ac8 <__malloc_max_sbrked_mem>
   116bc:	00f6f463          	bleu	a5,a3,116c4 <_malloc_r+0x444>
   116c0:	8ef1bc23          	sd	a5,-1800(gp) # 24ac8 <__malloc_max_sbrked_mem>
   116c4:	8f01b683          	ld	a3,-1808(gp) # 24ac0 <__malloc_max_total_mem>
   116c8:	01093403          	ld	s0,16(s2)
   116cc:	00f6f463          	bleu	a5,a3,116d4 <_malloc_r+0x454>
   116d0:	8ef1b823          	sd	a5,-1808(gp) # 24ac0 <__malloc_max_total_mem>
   116d4:	00843703          	ld	a4,8(s0)
   116d8:	ffc77713          	andi	a4,a4,-4
   116dc:	409707b3          	sub	a5,a4,s1
   116e0:	00976663          	bltu	a4,s1,116ec <_malloc_r+0x46c>
   116e4:	01f00713          	li	a4,31
   116e8:	00f74a63          	blt	a4,a5,116fc <_malloc_r+0x47c>
   116ec:	00098513          	mv	a0,s3
   116f0:	424000ef          	jal	11b14 <__malloc_unlock>
   116f4:	00000513          	li	a0,0
   116f8:	dfdff06f          	j	114f4 <_malloc_r+0x274>
   116fc:	0014e713          	ori	a4,s1,1
   11700:	00e43423          	sd	a4,8(s0)
   11704:	009404b3          	add	s1,s0,s1
   11708:	00993823          	sd	s1,16(s2)
   1170c:	0017e793          	ori	a5,a5,1
   11710:	00098513          	mv	a0,s3
   11714:	00f4b423          	sd	a5,8(s1)
   11718:	3fc000ef          	jal	11b14 <__malloc_unlock>
   1171c:	01040513          	addi	a0,s0,16
   11720:	dd5ff06f          	j	114f4 <_malloc_r+0x274>
   11724:	01400713          	li	a4,20
   11728:	0ef77a63          	bleu	a5,a4,1181c <_malloc_r+0x59c>
   1172c:	05400713          	li	a4,84
   11730:	18f76063          	bltu	a4,a5,118b0 <_malloc_r+0x630>
   11734:	00c4d593          	srli	a1,s1,0xc
   11738:	0005859b          	sext.w	a1,a1
   1173c:	06f5851b          	addiw	a0,a1,111
   11740:	0015169b          	slliw	a3,a0,0x1
   11744:	06e5859b          	addiw	a1,a1,110
   11748:	badff06f          	j	112f4 <_malloc_r+0x74>
   1174c:	0097d713          	srli	a4,a5,0x9
   11750:	00400613          	li	a2,4
   11754:	0ce67e63          	bleu	a4,a2,11830 <_malloc_r+0x5b0>
   11758:	01400613          	li	a2,20
   1175c:	1ce66663          	bltu	a2,a4,11928 <_malloc_r+0x6a8>
   11760:	0007071b          	sext.w	a4,a4
   11764:	05c7059b          	addiw	a1,a4,92
   11768:	05b7061b          	addiw	a2,a4,91
   1176c:	0015959b          	slliw	a1,a1,0x1
   11770:	00359593          	slli	a1,a1,0x3
   11774:	00b905b3          	add	a1,s2,a1
   11778:	0005b703          	ld	a4,0(a1)
   1177c:	ff058593          	addi	a1,a1,-16
   11780:	14e58863          	beq	a1,a4,118d0 <_malloc_r+0x650>
   11784:	00873603          	ld	a2,8(a4)
   11788:	ffc67613          	andi	a2,a2,-4
   1178c:	00c7f663          	bleu	a2,a5,11798 <_malloc_r+0x518>
   11790:	01073703          	ld	a4,16(a4)
   11794:	fee598e3          	bne	a1,a4,11784 <_malloc_r+0x504>
   11798:	01873583          	ld	a1,24(a4)
   1179c:	00893783          	ld	a5,8(s2)
   117a0:	00b43c23          	sd	a1,24(s0)
   117a4:	00e43823          	sd	a4,16(s0)
   117a8:	0085b823          	sd	s0,16(a1)
   117ac:	00873c23          	sd	s0,24(a4)
   117b0:	c11ff06f          	j	113c0 <_malloc_r+0x140>
   117b4:	0014e793          	ori	a5,s1,1
   117b8:	00f43423          	sd	a5,8(s0)
   117bc:	ca1ff06f          	j	1145c <_malloc_r+0x1dc>
   117c0:	00893783          	ld	a5,8(s2)
   117c4:	bfdff06f          	j	113c0 <_malloc_r+0x140>
   117c8:	0013031b          	addiw	t1,t1,1
   117cc:	00337793          	andi	a5,t1,3
   117d0:	01058593          	addi	a1,a1,16
   117d4:	c40794e3          	bnez	a5,1141c <_malloc_r+0x19c>
   117d8:	0900006f          	j	11868 <_malloc_r+0x5e8>
   117dc:	0187b403          	ld	s0,24(a5)
   117e0:	0026869b          	addiw	a3,a3,2
   117e4:	b68780e3          	beq	a5,s0,11344 <_malloc_r+0xc4>
   117e8:	cd9ff06f          	j	114c0 <_malloc_r+0x240>
   117ec:	00f407b3          	add	a5,s0,a5
   117f0:	0087b703          	ld	a4,8(a5)
   117f4:	01843683          	ld	a3,24(s0)
   117f8:	01043603          	ld	a2,16(s0)
   117fc:	00176713          	ori	a4,a4,1
   11800:	00e7b423          	sd	a4,8(a5)
   11804:	00d63c23          	sd	a3,24(a2)
   11808:	00098513          	mv	a0,s3
   1180c:	00c6b823          	sd	a2,16(a3)
   11810:	304000ef          	jal	11b14 <__malloc_unlock>
   11814:	01040513          	addi	a0,s0,16
   11818:	cddff06f          	j	114f4 <_malloc_r+0x274>
   1181c:	0007879b          	sext.w	a5,a5
   11820:	05c7851b          	addiw	a0,a5,92
   11824:	05b7859b          	addiw	a1,a5,91
   11828:	0015169b          	slliw	a3,a0,0x1
   1182c:	ac9ff06f          	j	112f4 <_malloc_r+0x74>
   11830:	0067d713          	srli	a4,a5,0x6
   11834:	0007071b          	sext.w	a4,a4
   11838:	0397059b          	addiw	a1,a4,57
   1183c:	0387061b          	addiw	a2,a4,56
   11840:	0015959b          	slliw	a1,a1,0x1
   11844:	f2dff06f          	j	11770 <_malloc_r+0x4f0>
   11848:	db2404e3          	beq	s0,s2,115f0 <_malloc_r+0x370>
   1184c:	01093403          	ld	s0,16(s2)
   11850:	00843703          	ld	a4,8(s0)
   11854:	ffc77713          	andi	a4,a4,-4
   11858:	e85ff06f          	j	116dc <_malloc_r+0x45c>
   1185c:	0108b783          	ld	a5,16(a7)
   11860:	fff6869b          	addiw	a3,a3,-1
   11864:	16f89863          	bne	a7,a5,119d4 <_malloc_r+0x754>
   11868:	0036f793          	andi	a5,a3,3
   1186c:	ff088893          	addi	a7,a7,-16
   11870:	fe0796e3          	bnez	a5,1185c <_malloc_r+0x5dc>
   11874:	00893783          	ld	a5,8(s2)
   11878:	fff64713          	not	a4,a2
   1187c:	00f777b3          	and	a5,a4,a5
   11880:	00f93423          	sd	a5,8(s2)
   11884:	00161613          	slli	a2,a2,0x1
   11888:	d0c7e2e3          	bltu	a5,a2,1158c <_malloc_r+0x30c>
   1188c:	d00600e3          	beqz	a2,1158c <_malloc_r+0x30c>
   11890:	00f67733          	and	a4,a2,a5
   11894:	00030693          	mv	a3,t1
   11898:	b60714e3          	bnez	a4,11400 <_malloc_r+0x180>
   1189c:	00161613          	slli	a2,a2,0x1
   118a0:	00f67733          	and	a4,a2,a5
   118a4:	0046869b          	addiw	a3,a3,4
   118a8:	fe070ae3          	beqz	a4,1189c <_malloc_r+0x61c>
   118ac:	b55ff06f          	j	11400 <_malloc_r+0x180>
   118b0:	15400713          	li	a4,340
   118b4:	04f76463          	bltu	a4,a5,118fc <_malloc_r+0x67c>
   118b8:	00f4d593          	srli	a1,s1,0xf
   118bc:	0005859b          	sext.w	a1,a1
   118c0:	0785851b          	addiw	a0,a1,120
   118c4:	0015169b          	slliw	a3,a0,0x1
   118c8:	0775859b          	addiw	a1,a1,119
   118cc:	a29ff06f          	j	112f4 <_malloc_r+0x74>
   118d0:	00893783          	ld	a5,8(s2)
   118d4:	4026571b          	sraiw	a4,a2,0x2
   118d8:	00100613          	li	a2,1
   118dc:	00e61733          	sll	a4,a2,a4
   118e0:	00f767b3          	or	a5,a4,a5
   118e4:	00f93423          	sd	a5,8(s2)
   118e8:	00058713          	mv	a4,a1
   118ec:	eb5ff06f          	j	117a0 <_malloc_r+0x520>
   118f0:	00100793          	li	a5,1
   118f4:	00fab423          	sd	a5,8(s5)
   118f8:	df5ff06f          	j	116ec <_malloc_r+0x46c>
   118fc:	55400713          	li	a4,1364
   11900:	0fe00693          	li	a3,254
   11904:	07f00513          	li	a0,127
   11908:	07e00593          	li	a1,126
   1190c:	9ef764e3          	bltu	a4,a5,112f4 <_malloc_r+0x74>
   11910:	0124d593          	srli	a1,s1,0x12
   11914:	0005859b          	sext.w	a1,a1
   11918:	07d5851b          	addiw	a0,a1,125
   1191c:	0015169b          	slliw	a3,a0,0x1
   11920:	07c5859b          	addiw	a1,a1,124
   11924:	9d1ff06f          	j	112f4 <_malloc_r+0x74>
   11928:	05400613          	li	a2,84
   1192c:	06e66063          	bltu	a2,a4,1198c <_malloc_r+0x70c>
   11930:	00c7d713          	srli	a4,a5,0xc
   11934:	0007071b          	sext.w	a4,a4
   11938:	06f7059b          	addiw	a1,a4,111
   1193c:	06e7061b          	addiw	a2,a4,110
   11940:	0015959b          	slliw	a1,a1,0x1
   11944:	e2dff06f          	j	11770 <_malloc_r+0x4f0>
   11948:	034a1713          	slli	a4,s4,0x34
   1194c:	ca071ce3          	bnez	a4,11604 <_malloc_r+0x384>
   11950:	01093683          	ld	a3,16(s2)
   11954:	016b8733          	add	a4,s7,s6
   11958:	00176713          	ori	a4,a4,1
   1195c:	00e6b423          	sd	a4,8(a3)
   11960:	d59ff06f          	j	116b8 <_malloc_r+0x438>
   11964:	00100713          	li	a4,1
   11968:	00000a13          	li	s4,0
   1196c:	d01ff06f          	j	1166c <_malloc_r+0x3ec>
   11970:	8151bc23          	sd	s5,-2024(gp) # 249e8 <__malloc_sbrk_base>
   11974:	ca9ff06f          	j	1161c <_malloc_r+0x39c>
   11978:	01040593          	addi	a1,s0,16
   1197c:	00098513          	mv	a0,s3
   11980:	099050ef          	jal	17218 <_free_r>
   11984:	000c2783          	lw	a5,0(s8)
   11988:	d31ff06f          	j	116b8 <_malloc_r+0x438>
   1198c:	15400613          	li	a2,340
   11990:	00e66e63          	bltu	a2,a4,119ac <_malloc_r+0x72c>
   11994:	00f7d713          	srli	a4,a5,0xf
   11998:	0007071b          	sext.w	a4,a4
   1199c:	0787059b          	addiw	a1,a4,120
   119a0:	0777061b          	addiw	a2,a4,119
   119a4:	0015959b          	slliw	a1,a1,0x1
   119a8:	dc9ff06f          	j	11770 <_malloc_r+0x4f0>
   119ac:	55400513          	li	a0,1364
   119b0:	0fe00593          	li	a1,254
   119b4:	07e00613          	li	a2,126
   119b8:	dae56ce3          	bltu	a0,a4,11770 <_malloc_r+0x4f0>
   119bc:	0127d713          	srli	a4,a5,0x12
   119c0:	0007071b          	sext.w	a4,a4
   119c4:	07d7059b          	addiw	a1,a4,125
   119c8:	07c7061b          	addiw	a2,a4,124
   119cc:	0015959b          	slliw	a1,a1,0x1
   119d0:	da1ff06f          	j	11770 <_malloc_r+0x4f0>
   119d4:	00893783          	ld	a5,8(s2)
   119d8:	eadff06f          	j	11884 <_malloc_r+0x604>
   119dc:	0034d693          	srli	a3,s1,0x3
   119e0:	0006869b          	sext.w	a3,a3
   119e4:	0016879b          	addiw	a5,a3,1
   119e8:	0017979b          	slliw	a5,a5,0x1
   119ec:	ab9ff06f          	j	114a4 <_malloc_r+0x224>

00000000000119f0 <memcpy>:
   119f0:	00a5c7b3          	xor	a5,a1,a0
   119f4:	0077f793          	andi	a5,a5,7
   119f8:	00c508b3          	add	a7,a0,a2
   119fc:	0e079263          	bnez	a5,11ae0 <memcpy+0xf0>
   11a00:	00700793          	li	a5,7
   11a04:	0ec7fe63          	bleu	a2,a5,11b00 <memcpy+0x110>
   11a08:	00757793          	andi	a5,a0,7
   11a0c:	04079a63          	bnez	a5,11a60 <memcpy+0x70>
   11a10:	ff88f813          	andi	a6,a7,-8
   11a14:	fc080793          	addi	a5,a6,-64
   11a18:	00050713          	mv	a4,a0
   11a1c:	06f56663          	bltu	a0,a5,11a88 <memcpy+0x98>
   11a20:	00058693          	mv	a3,a1
   11a24:	00070793          	mv	a5,a4
   11a28:	03077863          	bleu	a6,a4,11a58 <memcpy+0x68>
   11a2c:	0006b603          	ld	a2,0(a3)
   11a30:	00878793          	addi	a5,a5,8
   11a34:	00868693          	addi	a3,a3,8
   11a38:	fec7bc23          	sd	a2,-8(a5)
   11a3c:	ff07e8e3          	bltu	a5,a6,11a2c <memcpy+0x3c>
   11a40:	fff74793          	not	a5,a4
   11a44:	01078833          	add	a6,a5,a6
   11a48:	ff887813          	andi	a6,a6,-8
   11a4c:	00880813          	addi	a6,a6,8
   11a50:	01070733          	add	a4,a4,a6
   11a54:	010585b3          	add	a1,a1,a6
   11a58:	09176863          	bltu	a4,a7,11ae8 <memcpy+0xf8>
   11a5c:	00008067          	ret
   11a60:	00050713          	mv	a4,a0
   11a64:	0005c683          	lbu	a3,0(a1)
   11a68:	00170713          	addi	a4,a4,1
   11a6c:	00777793          	andi	a5,a4,7
   11a70:	fed70fa3          	sb	a3,-1(a4)
   11a74:	00158593          	addi	a1,a1,1
   11a78:	fe0796e3          	bnez	a5,11a64 <memcpy+0x74>
   11a7c:	ff88f813          	andi	a6,a7,-8
   11a80:	fc080793          	addi	a5,a6,-64
   11a84:	f8f77ee3          	bleu	a5,a4,11a20 <memcpy+0x30>
   11a88:	0005b383          	ld	t2,0(a1)
   11a8c:	0085b283          	ld	t0,8(a1)
   11a90:	0105bf83          	ld	t6,16(a1)
   11a94:	0185bf03          	ld	t5,24(a1)
   11a98:	0205be83          	ld	t4,32(a1)
   11a9c:	0285be03          	ld	t3,40(a1)
   11aa0:	0305b303          	ld	t1,48(a1)
   11aa4:	0385b603          	ld	a2,56(a1)
   11aa8:	04858593          	addi	a1,a1,72
   11aac:	04870713          	addi	a4,a4,72
   11ab0:	ff85b683          	ld	a3,-8(a1)
   11ab4:	fa773c23          	sd	t2,-72(a4)
   11ab8:	fc573023          	sd	t0,-64(a4)
   11abc:	fdf73423          	sd	t6,-56(a4)
   11ac0:	fde73823          	sd	t5,-48(a4)
   11ac4:	fdd73c23          	sd	t4,-40(a4)
   11ac8:	ffc73023          	sd	t3,-32(a4)
   11acc:	fe673423          	sd	t1,-24(a4)
   11ad0:	fec73823          	sd	a2,-16(a4)
   11ad4:	fed73c23          	sd	a3,-8(a4)
   11ad8:	faf768e3          	bltu	a4,a5,11a88 <memcpy+0x98>
   11adc:	f45ff06f          	j	11a20 <memcpy+0x30>
   11ae0:	00050713          	mv	a4,a0
   11ae4:	03157463          	bleu	a7,a0,11b0c <memcpy+0x11c>
   11ae8:	0005c783          	lbu	a5,0(a1)
   11aec:	00170713          	addi	a4,a4,1
   11af0:	00158593          	addi	a1,a1,1
   11af4:	fef70fa3          	sb	a5,-1(a4)
   11af8:	ff1768e3          	bltu	a4,a7,11ae8 <memcpy+0xf8>
   11afc:	00008067          	ret
   11b00:	00050713          	mv	a4,a0
   11b04:	ff1562e3          	bltu	a0,a7,11ae8 <memcpy+0xf8>
   11b08:	f55ff06f          	j	11a5c <memcpy+0x6c>
   11b0c:	00008067          	ret

0000000000011b10 <__malloc_lock>:
   11b10:	00008067          	ret

0000000000011b14 <__malloc_unlock>:
   11b14:	00008067          	ret

0000000000011b18 <_printf_r>:
   11b18:	fb010113          	addi	sp,sp,-80
   11b1c:	02c13023          	sd	a2,32(sp)
   11b20:	02d13423          	sd	a3,40(sp)
   11b24:	02f13c23          	sd	a5,56(sp)
   11b28:	02e13823          	sd	a4,48(sp)
   11b2c:	05013023          	sd	a6,64(sp)
   11b30:	05113423          	sd	a7,72(sp)
   11b34:	00058613          	mv	a2,a1
   11b38:	01053583          	ld	a1,16(a0)
   11b3c:	02010793          	addi	a5,sp,32
   11b40:	00078693          	mv	a3,a5
   11b44:	00113c23          	sd	ra,24(sp)
   11b48:	00f13423          	sd	a5,8(sp)
   11b4c:	578000ef          	jal	120c4 <_vfprintf_r>
   11b50:	01813083          	ld	ra,24(sp)
   11b54:	05010113          	addi	sp,sp,80
   11b58:	00008067          	ret

0000000000011b5c <printf>:
   11b5c:	8101b303          	ld	t1,-2032(gp) # 249e0 <_impure_ptr>
   11b60:	fa010113          	addi	sp,sp,-96
   11b64:	02c13823          	sd	a2,48(sp)
   11b68:	02d13c23          	sd	a3,56(sp)
   11b6c:	04f13423          	sd	a5,72(sp)
   11b70:	02b13423          	sd	a1,40(sp)
   11b74:	04e13023          	sd	a4,64(sp)
   11b78:	05013823          	sd	a6,80(sp)
   11b7c:	05113c23          	sd	a7,88(sp)
   11b80:	01033583          	ld	a1,16(t1)
   11b84:	02810793          	addi	a5,sp,40
   11b88:	00050613          	mv	a2,a0
   11b8c:	00078693          	mv	a3,a5
   11b90:	00030513          	mv	a0,t1
   11b94:	00113c23          	sd	ra,24(sp)
   11b98:	00f13423          	sd	a5,8(sp)
   11b9c:	528000ef          	jal	120c4 <_vfprintf_r>
   11ba0:	01813083          	ld	ra,24(sp)
   11ba4:	06010113          	addi	sp,sp,96
   11ba8:	00008067          	ret

0000000000011bac <_putchar_r>:
   11bac:	01053603          	ld	a2,16(a0)
   11bb0:	0180006f          	j	11bc8 <_putc_r>

0000000000011bb4 <putchar>:
   11bb4:	8101b783          	ld	a5,-2032(gp) # 249e0 <_impure_ptr>
   11bb8:	00050593          	mv	a1,a0
   11bbc:	0107b603          	ld	a2,16(a5)
   11bc0:	00078513          	mv	a0,a5
   11bc4:	0040006f          	j	11bc8 <_putc_r>

0000000000011bc8 <_putc_r>:
   11bc8:	fe010113          	addi	sp,sp,-32
   11bcc:	00813823          	sd	s0,16(sp)
   11bd0:	00113c23          	sd	ra,24(sp)
   11bd4:	00050413          	mv	s0,a0
   11bd8:	00050663          	beqz	a0,11be4 <_putc_r+0x1c>
   11bdc:	05052783          	lw	a5,80(a0)
   11be0:	06078863          	beqz	a5,11c50 <_putc_r+0x88>
   11be4:	00c62783          	lw	a5,12(a2)
   11be8:	fff7879b          	addiw	a5,a5,-1
   11bec:	00f62623          	sw	a5,12(a2)
   11bf0:	0207c663          	bltz	a5,11c1c <_putc_r+0x54>
   11bf4:	00063783          	ld	a5,0(a2)
   11bf8:	00b78023          	sb	a1,0(a5)
   11bfc:	00063783          	ld	a5,0(a2)
   11c00:	01813083          	ld	ra,24(sp)
   11c04:	00178713          	addi	a4,a5,1
   11c08:	00e63023          	sd	a4,0(a2)
   11c0c:	0007c503          	lbu	a0,0(a5)
   11c10:	01013403          	ld	s0,16(sp)
   11c14:	02010113          	addi	sp,sp,32
   11c18:	00008067          	ret
   11c1c:	02862703          	lw	a4,40(a2)
   11c20:	00e7ce63          	blt	a5,a4,11c3c <_putc_r+0x74>
   11c24:	00063783          	ld	a5,0(a2)
   11c28:	00a00713          	li	a4,10
   11c2c:	00b78023          	sb	a1,0(a5)
   11c30:	00063783          	ld	a5,0(a2)
   11c34:	0007c583          	lbu	a1,0(a5)
   11c38:	fce594e3          	bne	a1,a4,11c00 <_putc_r+0x38>
   11c3c:	00040513          	mv	a0,s0
   11c40:	01813083          	ld	ra,24(sp)
   11c44:	01013403          	ld	s0,16(sp)
   11c48:	02010113          	addi	sp,sp,32
   11c4c:	37c0306f          	j	14fc8 <__swbuf_r>
   11c50:	00c13423          	sd	a2,8(sp)
   11c54:	00b13023          	sd	a1,0(sp)
   11c58:	1fc050ef          	jal	16e54 <__sinit>
   11c5c:	00813603          	ld	a2,8(sp)
   11c60:	00013583          	ld	a1,0(sp)
   11c64:	f81ff06f          	j	11be4 <_putc_r+0x1c>

0000000000011c68 <putc>:
   11c68:	fd010113          	addi	sp,sp,-48
   11c6c:	02813023          	sd	s0,32(sp)
   11c70:	8101b403          	ld	s0,-2032(gp) # 249e0 <_impure_ptr>
   11c74:	00913c23          	sd	s1,24(sp)
   11c78:	02113423          	sd	ra,40(sp)
   11c7c:	00050493          	mv	s1,a0
   11c80:	00040663          	beqz	s0,11c8c <putc+0x24>
   11c84:	05042783          	lw	a5,80(s0)
   11c88:	06078663          	beqz	a5,11cf4 <putc+0x8c>
   11c8c:	00c5a783          	lw	a5,12(a1)
   11c90:	fff7879b          	addiw	a5,a5,-1
   11c94:	00f5a623          	sw	a5,12(a1)
   11c98:	0207c863          	bltz	a5,11cc8 <putc+0x60>
   11c9c:	0005b783          	ld	a5,0(a1)
   11ca0:	00978023          	sb	s1,0(a5)
   11ca4:	0005b783          	ld	a5,0(a1)
   11ca8:	02813083          	ld	ra,40(sp)
   11cac:	00178713          	addi	a4,a5,1
   11cb0:	00e5b023          	sd	a4,0(a1)
   11cb4:	0007c503          	lbu	a0,0(a5)
   11cb8:	02013403          	ld	s0,32(sp)
   11cbc:	01813483          	ld	s1,24(sp)
   11cc0:	03010113          	addi	sp,sp,48
   11cc4:	00008067          	ret
   11cc8:	0285a703          	lw	a4,40(a1)
   11ccc:	02e7ce63          	blt	a5,a4,11d08 <putc+0xa0>
   11cd0:	0005b783          	ld	a5,0(a1)
   11cd4:	00a00693          	li	a3,10
   11cd8:	00978023          	sb	s1,0(a5)
   11cdc:	0005b783          	ld	a5,0(a1)
   11ce0:	0007c703          	lbu	a4,0(a5)
   11ce4:	fcd712e3          	bne	a4,a3,11ca8 <putc+0x40>
   11ce8:	00058613          	mv	a2,a1
   11cec:	00070593          	mv	a1,a4
   11cf0:	0200006f          	j	11d10 <putc+0xa8>
   11cf4:	00040513          	mv	a0,s0
   11cf8:	00b13423          	sd	a1,8(sp)
   11cfc:	158050ef          	jal	16e54 <__sinit>
   11d00:	00813583          	ld	a1,8(sp)
   11d04:	f89ff06f          	j	11c8c <putc+0x24>
   11d08:	00058613          	mv	a2,a1
   11d0c:	00048593          	mv	a1,s1
   11d10:	00040513          	mv	a0,s0
   11d14:	02813083          	ld	ra,40(sp)
   11d18:	02013403          	ld	s0,32(sp)
   11d1c:	01813483          	ld	s1,24(sp)
   11d20:	03010113          	addi	sp,sp,48
   11d24:	2a40306f          	j	14fc8 <__swbuf_r>

0000000000011d28 <_puts_r>:
   11d28:	fa010113          	addi	sp,sp,-96
   11d2c:	04813823          	sd	s0,80(sp)
   11d30:	00050413          	mv	s0,a0
   11d34:	00058513          	mv	a0,a1
   11d38:	04913423          	sd	s1,72(sp)
   11d3c:	04113c23          	sd	ra,88(sp)
   11d40:	00058493          	mv	s1,a1
   11d44:	260000ef          	jal	11fa4 <strlen>
   11d48:	01043583          	ld	a1,16(s0)
   11d4c:	00022737          	lui	a4,0x22
   11d50:	26070713          	addi	a4,a4,608 # 22260 <zeroes.4123+0x18>
   11d54:	01059683          	lh	a3,16(a1)
   11d58:	02e13823          	sd	a4,48(sp)
   11d5c:	00100713          	li	a4,1
   11d60:	02e13c23          	sd	a4,56(sp)
   11d64:	02010713          	addi	a4,sp,32
   11d68:	00150613          	addi	a2,a0,1
   11d6c:	00e13423          	sd	a4,8(sp)
   11d70:	00200713          	li	a4,2
   11d74:	02913023          	sd	s1,32(sp)
   11d78:	02a13423          	sd	a0,40(sp)
   11d7c:	00c13c23          	sd	a2,24(sp)
   11d80:	00e12823          	sw	a4,16(sp)
   11d84:	03269793          	slli	a5,a3,0x32
   11d88:	0207c263          	bltz	a5,11dac <_puts_r+0x84>
   11d8c:	0ac5a783          	lw	a5,172(a1)
   11d90:	ffffe737          	lui	a4,0xffffe
   11d94:	00002637          	lui	a2,0x2
   11d98:	fff7071b          	addiw	a4,a4,-1
   11d9c:	00c6e6b3          	or	a3,a3,a2
   11da0:	00e7f733          	and	a4,a5,a4
   11da4:	00d59823          	sh	a3,16(a1)
   11da8:	0ae5a623          	sw	a4,172(a1)
   11dac:	00810613          	addi	a2,sp,8
   11db0:	00040513          	mv	a0,s0
   11db4:	774050ef          	jal	17528 <__sfvwrite_r>
   11db8:	05813083          	ld	ra,88(sp)
   11dbc:	00a03533          	snez	a0,a0
   11dc0:	40a0053b          	negw	a0,a0
   11dc4:	00a56513          	ori	a0,a0,10
   11dc8:	05013403          	ld	s0,80(sp)
   11dcc:	04813483          	ld	s1,72(sp)
   11dd0:	06010113          	addi	sp,sp,96
   11dd4:	00008067          	ret

0000000000011dd8 <puts>:
   11dd8:	00050593          	mv	a1,a0
   11ddc:	8101b503          	ld	a0,-2032(gp) # 249e0 <_impure_ptr>
   11de0:	f49ff06f          	j	11d28 <_puts_r>

0000000000011de4 <scanf>:
   11de4:	8101b303          	ld	t1,-2032(gp) # 249e0 <_impure_ptr>
   11de8:	fa010113          	addi	sp,sp,-96
   11dec:	02c13823          	sd	a2,48(sp)
   11df0:	02d13c23          	sd	a3,56(sp)
   11df4:	04f13423          	sd	a5,72(sp)
   11df8:	02b13423          	sd	a1,40(sp)
   11dfc:	04e13023          	sd	a4,64(sp)
   11e00:	05013823          	sd	a6,80(sp)
   11e04:	05113c23          	sd	a7,88(sp)
   11e08:	00833583          	ld	a1,8(t1)
   11e0c:	02810793          	addi	a5,sp,40
   11e10:	00050613          	mv	a2,a0
   11e14:	00078693          	mv	a3,a5
   11e18:	00030513          	mv	a0,t1
   11e1c:	00113c23          	sd	ra,24(sp)
   11e20:	00f13423          	sd	a5,8(sp)
   11e24:	158030ef          	jal	14f7c <_vfscanf_r>
   11e28:	01813083          	ld	ra,24(sp)
   11e2c:	06010113          	addi	sp,sp,96
   11e30:	00008067          	ret

0000000000011e34 <_scanf_r>:
   11e34:	fb010113          	addi	sp,sp,-80
   11e38:	02c13023          	sd	a2,32(sp)
   11e3c:	02d13423          	sd	a3,40(sp)
   11e40:	02f13c23          	sd	a5,56(sp)
   11e44:	02e13823          	sd	a4,48(sp)
   11e48:	05013023          	sd	a6,64(sp)
   11e4c:	05113423          	sd	a7,72(sp)
   11e50:	00058613          	mv	a2,a1
   11e54:	00853583          	ld	a1,8(a0)
   11e58:	02010793          	addi	a5,sp,32
   11e5c:	00078693          	mv	a3,a5
   11e60:	00113c23          	sd	ra,24(sp)
   11e64:	00f13423          	sd	a5,8(sp)
   11e68:	114030ef          	jal	14f7c <_vfscanf_r>
   11e6c:	01813083          	ld	ra,24(sp)
   11e70:	05010113          	addi	sp,sp,80
   11e74:	00008067          	ret

0000000000011e78 <strcmp>:
   11e78:	00b56733          	or	a4,a0,a1
   11e7c:	fff00393          	li	t2,-1
   11e80:	00777713          	andi	a4,a4,7
   11e84:	0c071c63          	bnez	a4,11f5c <strcmp+0xe4>
   11e88:	00013e17          	auipc	t3,0x13
   11e8c:	b90e3e03          	ld	t3,-1136(t3) # 24a18 <mask>
   11e90:	00053603          	ld	a2,0(a0)
   11e94:	0005b683          	ld	a3,0(a1)
   11e98:	01c672b3          	and	t0,a2,t3
   11e9c:	01c66333          	or	t1,a2,t3
   11ea0:	01c282b3          	add	t0,t0,t3
   11ea4:	0062e2b3          	or	t0,t0,t1
   11ea8:	0c729e63          	bne	t0,t2,11f84 <strcmp+0x10c>
   11eac:	04d61663          	bne	a2,a3,11ef8 <strcmp+0x80>
   11eb0:	00853603          	ld	a2,8(a0)
   11eb4:	0085b683          	ld	a3,8(a1)
   11eb8:	01c672b3          	and	t0,a2,t3
   11ebc:	01c66333          	or	t1,a2,t3
   11ec0:	01c282b3          	add	t0,t0,t3
   11ec4:	0062e2b3          	or	t0,t0,t1
   11ec8:	0a729a63          	bne	t0,t2,11f7c <strcmp+0x104>
   11ecc:	02d61663          	bne	a2,a3,11ef8 <strcmp+0x80>
   11ed0:	01053603          	ld	a2,16(a0)
   11ed4:	0105b683          	ld	a3,16(a1)
   11ed8:	01c672b3          	and	t0,a2,t3
   11edc:	01c66333          	or	t1,a2,t3
   11ee0:	01c282b3          	add	t0,t0,t3
   11ee4:	0062e2b3          	or	t0,t0,t1
   11ee8:	0a729463          	bne	t0,t2,11f90 <strcmp+0x118>
   11eec:	01850513          	addi	a0,a0,24
   11ef0:	01858593          	addi	a1,a1,24
   11ef4:	f8d60ee3          	beq	a2,a3,11e90 <strcmp+0x18>
   11ef8:	03061713          	slli	a4,a2,0x30
   11efc:	03069793          	slli	a5,a3,0x30
   11f00:	02f71a63          	bne	a4,a5,11f34 <strcmp+0xbc>
   11f04:	02061713          	slli	a4,a2,0x20
   11f08:	02069793          	slli	a5,a3,0x20
   11f0c:	02f71463          	bne	a4,a5,11f34 <strcmp+0xbc>
   11f10:	01061713          	slli	a4,a2,0x10
   11f14:	01069793          	slli	a5,a3,0x10
   11f18:	00f71e63          	bne	a4,a5,11f34 <strcmp+0xbc>
   11f1c:	03065713          	srli	a4,a2,0x30
   11f20:	0306d793          	srli	a5,a3,0x30
   11f24:	40f70533          	sub	a0,a4,a5
   11f28:	0ff57593          	andi	a1,a0,255
   11f2c:	02059063          	bnez	a1,11f4c <strcmp+0xd4>
   11f30:	00008067          	ret
   11f34:	03075713          	srli	a4,a4,0x30
   11f38:	0307d793          	srli	a5,a5,0x30
   11f3c:	40f70533          	sub	a0,a4,a5
   11f40:	0ff57593          	andi	a1,a0,255
   11f44:	00059463          	bnez	a1,11f4c <strcmp+0xd4>
   11f48:	00008067          	ret
   11f4c:	0ff77713          	andi	a4,a4,255
   11f50:	0ff7f793          	andi	a5,a5,255
   11f54:	40f70533          	sub	a0,a4,a5
   11f58:	00008067          	ret
   11f5c:	00054603          	lbu	a2,0(a0)
   11f60:	0005c683          	lbu	a3,0(a1)
   11f64:	00150513          	addi	a0,a0,1
   11f68:	00158593          	addi	a1,a1,1
   11f6c:	00d61463          	bne	a2,a3,11f74 <strcmp+0xfc>
   11f70:	fe0616e3          	bnez	a2,11f5c <strcmp+0xe4>
   11f74:	40d60533          	sub	a0,a2,a3
   11f78:	00008067          	ret
   11f7c:	00850513          	addi	a0,a0,8
   11f80:	00858593          	addi	a1,a1,8
   11f84:	fcd61ce3          	bne	a2,a3,11f5c <strcmp+0xe4>
   11f88:	00000513          	li	a0,0
   11f8c:	00008067          	ret
   11f90:	01050513          	addi	a0,a0,16
   11f94:	01058593          	addi	a1,a1,16
   11f98:	fcd612e3          	bne	a2,a3,11f5c <strcmp+0xe4>
   11f9c:	00000513          	li	a0,0
   11fa0:	00008067          	ret

0000000000011fa4 <strlen>:
   11fa4:	00757793          	andi	a5,a0,7
   11fa8:	00050593          	mv	a1,a0
   11fac:	06079a63          	bnez	a5,12020 <strlen+0x7c>
   11fb0:	000257b7          	lui	a5,0x25
   11fb4:	a187b683          	ld	a3,-1512(a5) # 24a18 <mask>
   11fb8:	fff00613          	li	a2,-1
   11fbc:	00850513          	addi	a0,a0,8
   11fc0:	ff853783          	ld	a5,-8(a0)
   11fc4:	00d7f733          	and	a4,a5,a3
   11fc8:	00d70733          	add	a4,a4,a3
   11fcc:	00d7e7b3          	or	a5,a5,a3
   11fd0:	00f767b3          	or	a5,a4,a5
   11fd4:	fec784e3          	beq	a5,a2,11fbc <strlen+0x18>
   11fd8:	ff854783          	lbu	a5,-8(a0)
   11fdc:	40b505b3          	sub	a1,a0,a1
   11fe0:	06078263          	beqz	a5,12044 <strlen+0xa0>
   11fe4:	ff954783          	lbu	a5,-7(a0)
   11fe8:	04078a63          	beqz	a5,1203c <strlen+0x98>
   11fec:	ffa54783          	lbu	a5,-6(a0)
   11ff0:	06078263          	beqz	a5,12054 <strlen+0xb0>
   11ff4:	ffb54783          	lbu	a5,-5(a0)
   11ff8:	04078a63          	beqz	a5,1204c <strlen+0xa8>
   11ffc:	ffc54783          	lbu	a5,-4(a0)
   12000:	ffd54703          	lbu	a4,-3(a0)
   12004:	ffe54683          	lbu	a3,-2(a0)
   12008:	04078a63          	beqz	a5,1205c <strlen+0xb8>
   1200c:	04070c63          	beqz	a4,12064 <strlen+0xc0>
   12010:	fff58513          	addi	a0,a1,-1
   12014:	04068c63          	beqz	a3,1206c <strlen+0xc8>
   12018:	00008067          	ret
   1201c:	f8070ae3          	beqz	a4,11fb0 <strlen+0xc>
   12020:	00054783          	lbu	a5,0(a0)
   12024:	00150513          	addi	a0,a0,1
   12028:	00757713          	andi	a4,a0,7
   1202c:	fe0798e3          	bnez	a5,1201c <strlen+0x78>
   12030:	40b50533          	sub	a0,a0,a1
   12034:	fff50513          	addi	a0,a0,-1
   12038:	00008067          	ret
   1203c:	ff958513          	addi	a0,a1,-7
   12040:	00008067          	ret
   12044:	ff858513          	addi	a0,a1,-8
   12048:	00008067          	ret
   1204c:	ffb58513          	addi	a0,a1,-5
   12050:	00008067          	ret
   12054:	ffa58513          	addi	a0,a1,-6
   12058:	00008067          	ret
   1205c:	ffc58513          	addi	a0,a1,-4
   12060:	00008067          	ret
   12064:	ffd58513          	addi	a0,a1,-3
   12068:	00008067          	ret
   1206c:	ffe58513          	addi	a0,a1,-2
   12070:	00008067          	ret

0000000000012074 <time>:
   12074:	fe010113          	addi	sp,sp,-32
   12078:	00813823          	sd	s0,16(sp)
   1207c:	00000593          	li	a1,0
   12080:	00050413          	mv	s0,a0
   12084:	00010513          	mv	a0,sp
   12088:	00113c23          	sd	ra,24(sp)
   1208c:	3050e0ef          	jal	20b90 <gettimeofday>
   12090:	02054063          	bltz	a0,120b0 <time+0x3c>
   12094:	00013503          	ld	a0,0(sp)
   12098:	00040463          	beqz	s0,120a0 <time+0x2c>
   1209c:	00a43023          	sd	a0,0(s0)
   120a0:	01813083          	ld	ra,24(sp)
   120a4:	01013403          	ld	s0,16(sp)
   120a8:	02010113          	addi	sp,sp,32
   120ac:	00008067          	ret
   120b0:	01813083          	ld	ra,24(sp)
   120b4:	fff00513          	li	a0,-1
   120b8:	01013403          	ld	s0,16(sp)
   120bc:	02010113          	addi	sp,sp,32
   120c0:	00008067          	ret

00000000000120c4 <_vfprintf_r>:
   120c4:	e1010113          	addi	sp,sp,-496
   120c8:	1e113423          	sd	ra,488(sp)
   120cc:	1d313423          	sd	s3,456(sp)
   120d0:	1d413023          	sd	s4,448(sp)
   120d4:	1b713423          	sd	s7,424(sp)
   120d8:	00058a13          	mv	s4,a1
   120dc:	00060993          	mv	s3,a2
   120e0:	02d13423          	sd	a3,40(sp)
   120e4:	1e813023          	sd	s0,480(sp)
   120e8:	1c913c23          	sd	s1,472(sp)
   120ec:	1d213823          	sd	s2,464(sp)
   120f0:	1b513c23          	sd	s5,440(sp)
   120f4:	1b613823          	sd	s6,432(sp)
   120f8:	1b813023          	sd	s8,416(sp)
   120fc:	19913c23          	sd	s9,408(sp)
   12100:	19a13823          	sd	s10,400(sp)
   12104:	19b13423          	sd	s11,392(sp)
   12108:	16813c27          	fsd	fs0,376(sp)
   1210c:	00050b93          	mv	s7,a0
   12110:	30d050ef          	jal	17c1c <_localeconv_r>
   12114:	00053783          	ld	a5,0(a0)
   12118:	00078513          	mv	a0,a5
   1211c:	06f13023          	sd	a5,96(sp)
   12120:	e85ff0ef          	jal	11fa4 <strlen>
   12124:	06a13423          	sd	a0,104(sp)
   12128:	000b8663          	beqz	s7,12134 <_vfprintf_r+0x70>
   1212c:	050ba783          	lw	a5,80(s7)
   12130:	2e078c63          	beqz	a5,12428 <_vfprintf_r+0x364>
   12134:	010a1683          	lh	a3,16(s4)
   12138:	03069793          	slli	a5,a3,0x30
   1213c:	0307d793          	srli	a5,a5,0x30
   12140:	03279713          	slli	a4,a5,0x32
   12144:	02074a63          	bltz	a4,12178 <_vfprintf_r+0xb4>
   12148:	000027b7          	lui	a5,0x2
   1214c:	0aca2603          	lw	a2,172(s4)
   12150:	00f6e7b3          	or	a5,a3,a5
   12154:	0107979b          	slliw	a5,a5,0x10
   12158:	ffffe737          	lui	a4,0xffffe
   1215c:	4107d79b          	sraiw	a5,a5,0x10
   12160:	fff7071b          	addiw	a4,a4,-1
   12164:	00e67733          	and	a4,a2,a4
   12168:	00fa1823          	sh	a5,16(s4)
   1216c:	03079793          	slli	a5,a5,0x30
   12170:	0aea2623          	sw	a4,172(s4)
   12174:	0307d793          	srli	a5,a5,0x30
   12178:	0087f713          	andi	a4,a5,8
   1217c:	1e070063          	beqz	a4,1235c <_vfprintf_r+0x298>
   12180:	018a3703          	ld	a4,24(s4)
   12184:	1c070c63          	beqz	a4,1235c <_vfprintf_r+0x298>
   12188:	01a7f793          	andi	a5,a5,26
   1218c:	00a00713          	li	a4,10
   12190:	1ee78863          	beq	a5,a4,12380 <_vfprintf_r+0x2bc>
   12194:	000217b7          	lui	a5,0x21
   12198:	35878793          	addi	a5,a5,856 # 21358 <sulp+0x6dc>
   1219c:	0f010b13          	addi	s6,sp,240
   121a0:	02f13823          	sd	a5,48(sp)
   121a4:	0ef10793          	addi	a5,sp,239
   121a8:	00021ab7          	lui	s5,0x21
   121ac:	000214b7          	lui	s1,0x21
   121b0:	40fb07b3          	sub	a5,s6,a5
   121b4:	04013c23          	sd	zero,88(sp)
   121b8:	0b613823          	sd	s6,176(sp)
   121bc:	0c013023          	sd	zero,192(sp)
   121c0:	0a012c23          	sw	zero,184(sp)
   121c4:	06012823          	sw	zero,112(sp)
   121c8:	000b0893          	mv	a7,s6
   121cc:	02013c23          	sd	zero,56(sp)
   121d0:	06012a23          	sw	zero,116(sp)
   121d4:	00012e23          	sw	zero,28(sp)
   121d8:	4c0a8a93          	addi	s5,s5,1216 # 214c0 <blanks.4193>
   121dc:	4d048493          	addi	s1,s1,1232 # 214d0 <zeroes.4194>
   121e0:	06f13c23          	sd	a5,120(sp)
   121e4:	0009c783          	lbu	a5,0(s3)
   121e8:	0e0782e3          	beqz	a5,12acc <_vfprintf_r+0xa08>
   121ec:	02500713          	li	a4,37
   121f0:	00098413          	mv	s0,s3
   121f4:	00e79663          	bne	a5,a4,12200 <_vfprintf_r+0x13c>
   121f8:	0580006f          	j	12250 <_vfprintf_r+0x18c>
   121fc:	00e78863          	beq	a5,a4,1220c <_vfprintf_r+0x148>
   12200:	00140413          	addi	s0,s0,1
   12204:	00044783          	lbu	a5,0(s0)
   12208:	fe079ae3          	bnez	a5,121fc <_vfprintf_r+0x138>
   1220c:	4134093b          	subw	s2,s0,s3
   12210:	04090063          	beqz	s2,12250 <_vfprintf_r+0x18c>
   12214:	0c013703          	ld	a4,192(sp)
   12218:	0b812783          	lw	a5,184(sp)
   1221c:	00090693          	mv	a3,s2
   12220:	00d70733          	add	a4,a4,a3
   12224:	0017879b          	addiw	a5,a5,1
   12228:	0138b023          	sd	s3,0(a7)
   1222c:	00d8b423          	sd	a3,8(a7)
   12230:	0ce13023          	sd	a4,192(sp)
   12234:	0af12c23          	sw	a5,184(sp)
   12238:	00700713          	li	a4,7
   1223c:	01088893          	addi	a7,a7,16
   12240:	16f74063          	blt	a4,a5,123a0 <_vfprintf_r+0x2dc>
   12244:	01c12783          	lw	a5,28(sp)
   12248:	012787bb          	addw	a5,a5,s2
   1224c:	00f12e23          	sw	a5,28(sp)
   12250:	00044783          	lbu	a5,0(s0)
   12254:	16078463          	beqz	a5,123bc <_vfprintf_r+0x2f8>
   12258:	00140993          	addi	s3,s0,1
   1225c:	080107a3          	sb	zero,143(sp)
   12260:	00000613          	li	a2,0
   12264:	00000593          	li	a1,0
   12268:	fff00413          	li	s0,-1
   1226c:	00012c23          	sw	zero,24(sp)
   12270:	00000c13          	li	s8,0
   12274:	05800713          	li	a4,88
   12278:	00900693          	li	a3,9
   1227c:	02a00513          	li	a0,42
   12280:	0009cd03          	lbu	s10,0(s3)
   12284:	00198993          	addi	s3,s3,1
   12288:	fe0d079b          	addiw	a5,s10,-32
   1228c:	1cf762e3          	bltu	a4,a5,12c50 <_vfprintf_r+0xb8c>
   12290:	03013803          	ld	a6,48(sp)
   12294:	02079793          	slli	a5,a5,0x20
   12298:	01e7d793          	srli	a5,a5,0x1e
   1229c:	010787b3          	add	a5,a5,a6
   122a0:	0007a783          	lw	a5,0(a5)
   122a4:	00078067          	jr	a5
   122a8:	010c6c13          	ori	s8,s8,16
   122ac:	fd5ff06f          	j	12280 <_vfprintf_r+0x1bc>
   122b0:	02813783          	ld	a5,40(sp)
   122b4:	0007a803          	lw	a6,0(a5)
   122b8:	00878793          	addi	a5,a5,8
   122bc:	02f13423          	sd	a5,40(sp)
   122c0:	01012c23          	sw	a6,24(sp)
   122c4:	fa085ee3          	bgez	a6,12280 <_vfprintf_r+0x1bc>
   122c8:	410007bb          	negw	a5,a6
   122cc:	00f12c23          	sw	a5,24(sp)
   122d0:	004c6c13          	ori	s8,s8,4
   122d4:	fadff06f          	j	12280 <_vfprintf_r+0x1bc>
   122d8:	03000793          	li	a5,48
   122dc:	08f10823          	sb	a5,144(sp)
   122e0:	07800793          	li	a5,120
   122e4:	08f108a3          	sb	a5,145(sp)
   122e8:	02813783          	ld	a5,40(sp)
   122ec:	080107a3          	sb	zero,143(sp)
   122f0:	002c6693          	ori	a3,s8,2
   122f4:	00878713          	addi	a4,a5,8
   122f8:	0007b783          	ld	a5,0(a5)
   122fc:	180444e3          	bltz	s0,12c84 <_vfprintf_r+0xbc0>
   12300:	f7fc7c13          	andi	s8,s8,-129
   12304:	02e13423          	sd	a4,40(sp)
   12308:	002c6c13          	ori	s8,s8,2
   1230c:	120796e3          	bnez	a5,12c38 <_vfprintf_r+0xb74>
   12310:	000227b7          	lui	a5,0x22
   12314:	2a078793          	addi	a5,a5,672 # 222a0 <zeroes.4123+0x58>
   12318:	02f13c23          	sd	a5,56(sp)
   1231c:	07800d13          	li	s10,120
   12320:	00000613          	li	a2,0
   12324:	7e040463          	beqz	s0,12b0c <_vfprintf_r+0xa48>
   12328:	00000793          	li	a5,0
   1232c:	000b0913          	mv	s2,s6
   12330:	03813683          	ld	a3,56(sp)
   12334:	00f7f713          	andi	a4,a5,15
   12338:	fff90913          	addi	s2,s2,-1
   1233c:	00e68733          	add	a4,a3,a4
   12340:	00074703          	lbu	a4,0(a4) # ffffffffffffe000 <_end+0xfffffffffffd6c88>
   12344:	0047d793          	srli	a5,a5,0x4
   12348:	00e90023          	sb	a4,0(s2)
   1234c:	fe0792e3          	bnez	a5,12330 <_vfprintf_r+0x26c>
   12350:	412b07b3          	sub	a5,s6,s2
   12354:	02f12023          	sw	a5,32(sp)
   12358:	1680006f          	j	124c0 <_vfprintf_r+0x3fc>
   1235c:	000a0593          	mv	a1,s4
   12360:	000b8513          	mv	a0,s7
   12364:	5ed020ef          	jal	15150 <__swsetup_r>
   12368:	00050463          	beqz	a0,12370 <_vfprintf_r+0x2ac>
   1236c:	3940106f          	j	13700 <_vfprintf_r+0x163c>
   12370:	010a5783          	lhu	a5,16(s4)
   12374:	00a00713          	li	a4,10
   12378:	01a7f793          	andi	a5,a5,26
   1237c:	e0e79ce3          	bne	a5,a4,12194 <_vfprintf_r+0xd0>
   12380:	012a1783          	lh	a5,18(s4)
   12384:	e007c8e3          	bltz	a5,12194 <_vfprintf_r+0xd0>
   12388:	02813683          	ld	a3,40(sp)
   1238c:	00098613          	mv	a2,s3
   12390:	000a0593          	mv	a1,s4
   12394:	000b8513          	mv	a0,s7
   12398:	1c9010ef          	jal	13d60 <__sbprintf>
   1239c:	04c0006f          	j	123e8 <_vfprintf_r+0x324>
   123a0:	0b010613          	addi	a2,sp,176
   123a4:	000a0593          	mv	a1,s4
   123a8:	000b8513          	mv	a0,s7
   123ac:	1e80b0ef          	jal	1d594 <__sprint_r>
   123b0:	02051263          	bnez	a0,123d4 <_vfprintf_r+0x310>
   123b4:	000b0893          	mv	a7,s6
   123b8:	e8dff06f          	j	12244 <_vfprintf_r+0x180>
   123bc:	0c013783          	ld	a5,192(sp)
   123c0:	00078a63          	beqz	a5,123d4 <_vfprintf_r+0x310>
   123c4:	0b010613          	addi	a2,sp,176
   123c8:	000a0593          	mv	a1,s4
   123cc:	000b8513          	mv	a0,s7
   123d0:	1c40b0ef          	jal	1d594 <__sprint_r>
   123d4:	010a5783          	lhu	a5,16(s4)
   123d8:	0407f793          	andi	a5,a5,64
   123dc:	00078463          	beqz	a5,123e4 <_vfprintf_r+0x320>
   123e0:	3200106f          	j	13700 <_vfprintf_r+0x163c>
   123e4:	01c12503          	lw	a0,28(sp)
   123e8:	1e813083          	ld	ra,488(sp)
   123ec:	1e013403          	ld	s0,480(sp)
   123f0:	1d813483          	ld	s1,472(sp)
   123f4:	1d013903          	ld	s2,464(sp)
   123f8:	1c813983          	ld	s3,456(sp)
   123fc:	1c013a03          	ld	s4,448(sp)
   12400:	1b813a83          	ld	s5,440(sp)
   12404:	1b013b03          	ld	s6,432(sp)
   12408:	1a813b83          	ld	s7,424(sp)
   1240c:	1a013c03          	ld	s8,416(sp)
   12410:	19813c83          	ld	s9,408(sp)
   12414:	19013d03          	ld	s10,400(sp)
   12418:	18813d83          	ld	s11,392(sp)
   1241c:	17813407          	fld	fs0,376(sp)
   12420:	1f010113          	addi	sp,sp,496
   12424:	00008067          	ret
   12428:	000b8513          	mv	a0,s7
   1242c:	229040ef          	jal	16e54 <__sinit>
   12430:	d05ff06f          	j	12134 <_vfprintf_r+0x70>
   12434:	00100613          	li	a2,1
   12438:	02b00593          	li	a1,43
   1243c:	e45ff06f          	j	12280 <_vfprintf_r+0x1bc>
   12440:	00060463          	beqz	a2,12448 <_vfprintf_r+0x384>
   12444:	0d90106f          	j	13d1c <_vfprintf_r+0x1c58>
   12448:	010c7793          	andi	a5,s8,16
   1244c:	22078263          	beqz	a5,12670 <_vfprintf_r+0x5ac>
   12450:	02813783          	ld	a5,40(sp)
   12454:	080107a3          	sb	zero,143(sp)
   12458:	00878713          	addi	a4,a5,8
   1245c:	0007b783          	ld	a5,0(a5)
   12460:	22044663          	bltz	s0,1268c <_vfprintf_r+0x5c8>
   12464:	02e13423          	sd	a4,40(sp)
   12468:	f7fc7c13          	andi	s8,s8,-129
   1246c:	22079663          	bnez	a5,12698 <_vfprintf_r+0x5d4>
   12470:	00000613          	li	a2,0
   12474:	00000793          	li	a5,0
   12478:	00041463          	bnez	s0,12480 <_vfprintf_r+0x3bc>
   1247c:	3680106f          	j	137e4 <_vfprintf_r+0x1720>
   12480:	000b0913          	mv	s2,s6
   12484:	0077f713          	andi	a4,a5,7
   12488:	fff90913          	addi	s2,s2,-1
   1248c:	0307071b          	addiw	a4,a4,48
   12490:	00e90023          	sb	a4,0(s2)
   12494:	0037d793          	srli	a5,a5,0x3
   12498:	fe0796e3          	bnez	a5,12484 <_vfprintf_r+0x3c0>
   1249c:	001c7793          	andi	a5,s8,1
   124a0:	ea0788e3          	beqz	a5,12350 <_vfprintf_r+0x28c>
   124a4:	03000793          	li	a5,48
   124a8:	eaf704e3          	beq	a4,a5,12350 <_vfprintf_r+0x28c>
   124ac:	fff90713          	addi	a4,s2,-1
   124b0:	40eb06b3          	sub	a3,s6,a4
   124b4:	fef90fa3          	sb	a5,-1(s2)
   124b8:	02d12023          	sw	a3,32(sp)
   124bc:	00070913          	mv	s2,a4
   124c0:	02012783          	lw	a5,32(sp)
   124c4:	00078d93          	mv	s11,a5
   124c8:	0087d463          	ble	s0,a5,124d0 <_vfprintf_r+0x40c>
   124cc:	00040d93          	mv	s11,s0
   124d0:	01b12423          	sw	s11,8(sp)
   124d4:	04012623          	sw	zero,76(sp)
   124d8:	2a060263          	beqz	a2,1277c <_vfprintf_r+0x6b8>
   124dc:	00812783          	lw	a5,8(sp)
   124e0:	0017879b          	addiw	a5,a5,1
   124e4:	00f12423          	sw	a5,8(sp)
   124e8:	2940006f          	j	1277c <_vfprintf_r+0x6b8>
   124ec:	0009cd03          	lbu	s10,0(s3)
   124f0:	00198993          	addi	s3,s3,1
   124f4:	00ad1463          	bne	s10,a0,124fc <_vfprintf_r+0x438>
   124f8:	75c0106f          	j	13c54 <_vfprintf_r+0x1b90>
   124fc:	fd0d079b          	addiw	a5,s10,-48
   12500:	00000413          	li	s0,0
   12504:	d8f6e2e3          	bltu	a3,a5,12288 <_vfprintf_r+0x1c4>
   12508:	00198993          	addi	s3,s3,1
   1250c:	fff9cd03          	lbu	s10,-1(s3)
   12510:	0014181b          	slliw	a6,s0,0x1
   12514:	0034141b          	slliw	s0,s0,0x3
   12518:	0088043b          	addw	s0,a6,s0
   1251c:	00f4043b          	addw	s0,s0,a5
   12520:	fd0d079b          	addiw	a5,s10,-48
   12524:	fef6f2e3          	bleu	a5,a3,12508 <_vfprintf_r+0x444>
   12528:	d60450e3          	bgez	s0,12288 <_vfprintf_r+0x1c4>
   1252c:	fff00413          	li	s0,-1
   12530:	d59ff06f          	j	12288 <_vfprintf_r+0x1c4>
   12534:	080c6c13          	ori	s8,s8,128
   12538:	d49ff06f          	j	12280 <_vfprintf_r+0x1bc>
   1253c:	d40592e3          	bnez	a1,12280 <_vfprintf_r+0x1bc>
   12540:	00100613          	li	a2,1
   12544:	02000593          	li	a1,32
   12548:	d39ff06f          	j	12280 <_vfprintf_r+0x1bc>
   1254c:	001c6c13          	ori	s8,s8,1
   12550:	d31ff06f          	j	12280 <_vfprintf_r+0x1bc>
   12554:	02813783          	ld	a5,40(sp)
   12558:	080107a3          	sb	zero,143(sp)
   1255c:	0007b903          	ld	s2,0(a5)
   12560:	00878c93          	addi	s9,a5,8
   12564:	00091463          	bnez	s2,1256c <_vfprintf_r+0x4a8>
   12568:	39c0106f          	j	13904 <_vfprintf_r+0x1840>
   1256c:	01113023          	sd	a7,0(sp)
   12570:	00045463          	bgez	s0,12578 <_vfprintf_r+0x4b4>
   12574:	3240106f          	j	13898 <_vfprintf_r+0x17d4>
   12578:	00040613          	mv	a2,s0
   1257c:	00000593          	li	a1,0
   12580:	00090513          	mv	a0,s2
   12584:	2c9050ef          	jal	1804c <memchr>
   12588:	00013883          	ld	a7,0(sp)
   1258c:	00051463          	bnez	a0,12594 <_vfprintf_r+0x4d0>
   12590:	4c00106f          	j	13a50 <_vfprintf_r+0x198c>
   12594:	412507bb          	subw	a5,a0,s2
   12598:	02f12023          	sw	a5,32(sp)
   1259c:	00078d93          	mv	s11,a5
   125a0:	0007d463          	bgez	a5,125a8 <_vfprintf_r+0x4e4>
   125a4:	3140106f          	j	138b8 <_vfprintf_r+0x17f4>
   125a8:	08f14603          	lbu	a2,143(sp)
   125ac:	01b12423          	sw	s11,8(sp)
   125b0:	03913423          	sd	s9,40(sp)
   125b4:	00000413          	li	s0,0
   125b8:	04012623          	sw	zero,76(sp)
   125bc:	f1dff06f          	j	124d8 <_vfprintf_r+0x414>
   125c0:	00060463          	beqz	a2,125c8 <_vfprintf_r+0x504>
   125c4:	7800106f          	j	13d44 <_vfprintf_r+0x1c80>
   125c8:	010c7793          	andi	a5,s8,16
   125cc:	0e078463          	beqz	a5,126b4 <_vfprintf_r+0x5f0>
   125d0:	02813783          	ld	a5,40(sp)
   125d4:	080107a3          	sb	zero,143(sp)
   125d8:	00878713          	addi	a4,a5,8
   125dc:	0007b783          	ld	a5,0(a5)
   125e0:	0e044863          	bltz	s0,126d0 <_vfprintf_r+0x60c>
   125e4:	02e13423          	sd	a4,40(sp)
   125e8:	f7fc7c13          	andi	s8,s8,-129
   125ec:	00000613          	li	a2,0
   125f0:	50078c63          	beqz	a5,12b08 <_vfprintf_r+0xa44>
   125f4:	00900713          	li	a4,9
   125f8:	000b0913          	mv	s2,s6
   125fc:	00a00693          	li	a3,10
   12600:	40f770e3          	bleu	a5,a4,13200 <_vfprintf_r+0x113c>
   12604:	02d7f733          	remu	a4,a5,a3
   12608:	fff90913          	addi	s2,s2,-1
   1260c:	02d7d7b3          	divu	a5,a5,a3
   12610:	0307071b          	addiw	a4,a4,48
   12614:	00e90023          	sb	a4,0(s2)
   12618:	fe0796e3          	bnez	a5,12604 <_vfprintf_r+0x540>
   1261c:	412b07b3          	sub	a5,s6,s2
   12620:	02f12023          	sw	a5,32(sp)
   12624:	e9dff06f          	j	124c0 <_vfprintf_r+0x3fc>
   12628:	00012c23          	sw	zero,24(sp)
   1262c:	fd0d079b          	addiw	a5,s10,-48
   12630:	01812303          	lw	t1,24(sp)
   12634:	00198993          	addi	s3,s3,1
   12638:	fff9cd03          	lbu	s10,-1(s3)
   1263c:	0013181b          	slliw	a6,t1,0x1
   12640:	00331c9b          	slliw	s9,t1,0x3
   12644:	01980cbb          	addw	s9,a6,s9
   12648:	019787bb          	addw	a5,a5,s9
   1264c:	00f12c23          	sw	a5,24(sp)
   12650:	fd0d079b          	addiw	a5,s10,-48
   12654:	fcf6fee3          	bleu	a5,a3,12630 <_vfprintf_r+0x56c>
   12658:	c31ff06f          	j	12288 <_vfprintf_r+0x1c4>
   1265c:	00060463          	beqz	a2,12664 <_vfprintf_r+0x5a0>
   12660:	6d80106f          	j	13d38 <_vfprintf_r+0x1c74>
   12664:	010c6c13          	ori	s8,s8,16
   12668:	010c7793          	andi	a5,s8,16
   1266c:	de0792e3          	bnez	a5,12450 <_vfprintf_r+0x38c>
   12670:	040c7793          	andi	a5,s8,64
   12674:	080107a3          	sb	zero,143(sp)
   12678:	580780e3          	beqz	a5,133f8 <_vfprintf_r+0x1334>
   1267c:	02813783          	ld	a5,40(sp)
   12680:	00878713          	addi	a4,a5,8
   12684:	0007d783          	lhu	a5,0(a5)
   12688:	dc045ee3          	bgez	s0,12464 <_vfprintf_r+0x3a0>
   1268c:	02e13423          	sd	a4,40(sp)
   12690:	00000613          	li	a2,0
   12694:	60078a63          	beqz	a5,12ca8 <_vfprintf_r+0xbe4>
   12698:	00000613          	li	a2,0
   1269c:	de5ff06f          	j	12480 <_vfprintf_r+0x3bc>
   126a0:	00060463          	beqz	a2,126a8 <_vfprintf_r+0x5e4>
   126a4:	6880106f          	j	13d2c <_vfprintf_r+0x1c68>
   126a8:	010c6c13          	ori	s8,s8,16
   126ac:	010c7793          	andi	a5,s8,16
   126b0:	f20790e3          	bnez	a5,125d0 <_vfprintf_r+0x50c>
   126b4:	040c7793          	andi	a5,s8,64
   126b8:	080107a3          	sb	zero,143(sp)
   126bc:	500780e3          	beqz	a5,133bc <_vfprintf_r+0x12f8>
   126c0:	02813783          	ld	a5,40(sp)
   126c4:	00878713          	addi	a4,a5,8
   126c8:	0007d783          	lhu	a5,0(a5)
   126cc:	f0045ce3          	bgez	s0,125e4 <_vfprintf_r+0x520>
   126d0:	02e13423          	sd	a4,40(sp)
   126d4:	00000613          	li	a2,0
   126d8:	f0079ee3          	bnez	a5,125f4 <_vfprintf_r+0x530>
   126dc:	00100793          	li	a5,1
   126e0:	5c80006f          	j	12ca8 <_vfprintf_r+0xbe4>
   126e4:	00060463          	beqz	a2,126ec <_vfprintf_r+0x628>
   126e8:	63c0106f          	j	13d24 <_vfprintf_r+0x1c60>
   126ec:	000227b7          	lui	a5,0x22
   126f0:	28878793          	addi	a5,a5,648 # 22288 <zeroes.4123+0x40>
   126f4:	02f13c23          	sd	a5,56(sp)
   126f8:	010c7793          	andi	a5,s8,16
   126fc:	4c078263          	beqz	a5,12bc0 <_vfprintf_r+0xafc>
   12700:	02813703          	ld	a4,40(sp)
   12704:	00073783          	ld	a5,0(a4)
   12708:	00870713          	addi	a4,a4,8
   1270c:	02e13423          	sd	a4,40(sp)
   12710:	001c7713          	andi	a4,s8,1
   12714:	120706e3          	beqz	a4,13040 <_vfprintf_r+0xf7c>
   12718:	6a078ee3          	beqz	a5,135d4 <_vfprintf_r+0x1510>
   1271c:	03000713          	li	a4,48
   12720:	08e10823          	sb	a4,144(sp)
   12724:	09a108a3          	sb	s10,145(sp)
   12728:	080107a3          	sb	zero,143(sp)
   1272c:	002c6713          	ori	a4,s8,2
   12730:	00045463          	bgez	s0,12738 <_vfprintf_r+0x674>
   12734:	2140106f          	j	13948 <_vfprintf_r+0x1884>
   12738:	f7fc7c13          	andi	s8,s8,-129
   1273c:	002c6c13          	ori	s8,s8,2
   12740:	00000613          	li	a2,0
   12744:	be9ff06f          	j	1232c <_vfprintf_r+0x268>
   12748:	02813703          	ld	a4,40(sp)
   1274c:	00100693          	li	a3,1
   12750:	00d12423          	sw	a3,8(sp)
   12754:	00072783          	lw	a5,0(a4)
   12758:	080107a3          	sb	zero,143(sp)
   1275c:	00000613          	li	a2,0
   12760:	0cf10423          	sb	a5,200(sp)
   12764:	00870793          	addi	a5,a4,8
   12768:	02f13423          	sd	a5,40(sp)
   1276c:	02d12023          	sw	a3,32(sp)
   12770:	00000413          	li	s0,0
   12774:	04012623          	sw	zero,76(sp)
   12778:	0c810913          	addi	s2,sp,200
   1277c:	002c7793          	andi	a5,s8,2
   12780:	04f12023          	sw	a5,64(sp)
   12784:	00078863          	beqz	a5,12794 <_vfprintf_r+0x6d0>
   12788:	00812783          	lw	a5,8(sp)
   1278c:	0027879b          	addiw	a5,a5,2
   12790:	00f12423          	sw	a5,8(sp)
   12794:	084c7793          	andi	a5,s8,132
   12798:	04f12423          	sw	a5,72(sp)
   1279c:	52079263          	bnez	a5,12cc0 <_vfprintf_r+0xbfc>
   127a0:	01812783          	lw	a5,24(sp)
   127a4:	00812703          	lw	a4,8(sp)
   127a8:	40e78cbb          	subw	s9,a5,a4
   127ac:	51905a63          	blez	s9,12cc0 <_vfprintf_r+0xbfc>
   127b0:	01000793          	li	a5,16
   127b4:	0197c463          	blt	a5,s9,127bc <_vfprintf_r+0x6f8>
   127b8:	1080106f          	j	138c0 <_vfprintf_r+0x17fc>
   127bc:	01000813          	li	a6,16
   127c0:	0c013783          	ld	a5,192(sp)
   127c4:	0b812703          	lw	a4,184(sp)
   127c8:	05513823          	sd	s5,80(sp)
   127cc:	00700313          	li	t1,7
   127d0:	00080d93          	mv	s11,a6
   127d4:	00c0006f          	j	127e0 <_vfprintf_r+0x71c>
   127d8:	ff0c8c9b          	addiw	s9,s9,-16
   127dc:	059dde63          	ble	s9,s11,12838 <_vfprintf_r+0x774>
   127e0:	01078793          	addi	a5,a5,16
   127e4:	0017071b          	addiw	a4,a4,1
   127e8:	0158b023          	sd	s5,0(a7)
   127ec:	0108b423          	sd	a6,8(a7)
   127f0:	0cf13023          	sd	a5,192(sp)
   127f4:	0ae12c23          	sw	a4,184(sp)
   127f8:	01088893          	addi	a7,a7,16
   127fc:	fce35ee3          	ble	a4,t1,127d8 <_vfprintf_r+0x714>
   12800:	0b010613          	addi	a2,sp,176
   12804:	000a0593          	mv	a1,s4
   12808:	000b8513          	mv	a0,s7
   1280c:	00613823          	sd	t1,16(sp)
   12810:	01013023          	sd	a6,0(sp)
   12814:	5810a0ef          	jal	1d594 <__sprint_r>
   12818:	ba051ee3          	bnez	a0,123d4 <_vfprintf_r+0x310>
   1281c:	ff0c8c9b          	addiw	s9,s9,-16
   12820:	0c013783          	ld	a5,192(sp)
   12824:	0b812703          	lw	a4,184(sp)
   12828:	000b0893          	mv	a7,s6
   1282c:	01013303          	ld	t1,16(sp)
   12830:	00013803          	ld	a6,0(sp)
   12834:	fb9dc6e3          	blt	s11,s9,127e0 <_vfprintf_r+0x71c>
   12838:	05013603          	ld	a2,80(sp)
   1283c:	00fc87b3          	add	a5,s9,a5
   12840:	0017071b          	addiw	a4,a4,1
   12844:	00c8b023          	sd	a2,0(a7)
   12848:	0198b423          	sd	s9,8(a7)
   1284c:	0cf13023          	sd	a5,192(sp)
   12850:	0ae12c23          	sw	a4,184(sp)
   12854:	00700693          	li	a3,7
   12858:	0ce6cae3          	blt	a3,a4,1312c <_vfprintf_r+0x1068>
   1285c:	08f14603          	lbu	a2,143(sp)
   12860:	01088893          	addi	a7,a7,16
   12864:	02060a63          	beqz	a2,12898 <_vfprintf_r+0x7d4>
   12868:	0b812703          	lw	a4,184(sp)
   1286c:	08f10693          	addi	a3,sp,143
   12870:	00d8b023          	sd	a3,0(a7)
   12874:	00178793          	addi	a5,a5,1
   12878:	00100693          	li	a3,1
   1287c:	0017071b          	addiw	a4,a4,1
   12880:	00d8b423          	sd	a3,8(a7)
   12884:	0cf13023          	sd	a5,192(sp)
   12888:	0ae12c23          	sw	a4,184(sp)
   1288c:	00700693          	li	a3,7
   12890:	01088893          	addi	a7,a7,16
   12894:	76e6c663          	blt	a3,a4,13000 <_vfprintf_r+0xf3c>
   12898:	04012703          	lw	a4,64(sp)
   1289c:	02070a63          	beqz	a4,128d0 <_vfprintf_r+0x80c>
   128a0:	0b812703          	lw	a4,184(sp)
   128a4:	09010693          	addi	a3,sp,144
   128a8:	00d8b023          	sd	a3,0(a7)
   128ac:	00278793          	addi	a5,a5,2
   128b0:	00200693          	li	a3,2
   128b4:	0017071b          	addiw	a4,a4,1
   128b8:	00d8b423          	sd	a3,8(a7)
   128bc:	0cf13023          	sd	a5,192(sp)
   128c0:	0ae12c23          	sw	a4,184(sp)
   128c4:	00700693          	li	a3,7
   128c8:	01088893          	addi	a7,a7,16
   128cc:	74e6ca63          	blt	a3,a4,13020 <_vfprintf_r+0xf5c>
   128d0:	04812683          	lw	a3,72(sp)
   128d4:	08000713          	li	a4,128
   128d8:	5ee68663          	beq	a3,a4,12ec4 <_vfprintf_r+0xe00>
   128dc:	02012703          	lw	a4,32(sp)
   128e0:	40e4043b          	subw	s0,s0,a4
   128e4:	0c805063          	blez	s0,129a4 <_vfprintf_r+0x8e0>
   128e8:	01000713          	li	a4,16
   128ec:	4e875ce3          	ble	s0,a4,135e4 <_vfprintf_r+0x1520>
   128f0:	01000c93          	li	s9,16
   128f4:	0b812703          	lw	a4,184(sp)
   128f8:	00913823          	sd	s1,16(sp)
   128fc:	00700813          	li	a6,7
   12900:	000c8d93          	mv	s11,s9
   12904:	00c0006f          	j	12910 <_vfprintf_r+0x84c>
   12908:	ff04041b          	addiw	s0,s0,-16
   1290c:	048dda63          	ble	s0,s11,12960 <_vfprintf_r+0x89c>
   12910:	01078793          	addi	a5,a5,16
   12914:	0017071b          	addiw	a4,a4,1
   12918:	0098b023          	sd	s1,0(a7)
   1291c:	0198b423          	sd	s9,8(a7)
   12920:	0cf13023          	sd	a5,192(sp)
   12924:	0ae12c23          	sw	a4,184(sp)
   12928:	01088893          	addi	a7,a7,16
   1292c:	fce85ee3          	ble	a4,a6,12908 <_vfprintf_r+0x844>
   12930:	0b010613          	addi	a2,sp,176
   12934:	000a0593          	mv	a1,s4
   12938:	000b8513          	mv	a0,s7
   1293c:	01013023          	sd	a6,0(sp)
   12940:	4550a0ef          	jal	1d594 <__sprint_r>
   12944:	a80518e3          	bnez	a0,123d4 <_vfprintf_r+0x310>
   12948:	ff04041b          	addiw	s0,s0,-16
   1294c:	0c013783          	ld	a5,192(sp)
   12950:	0b812703          	lw	a4,184(sp)
   12954:	000b0893          	mv	a7,s6
   12958:	00013803          	ld	a6,0(sp)
   1295c:	fa8dcae3          	blt	s11,s0,12910 <_vfprintf_r+0x84c>
   12960:	01013683          	ld	a3,16(sp)
   12964:	008787b3          	add	a5,a5,s0
   12968:	0017071b          	addiw	a4,a4,1
   1296c:	00d8b023          	sd	a3,0(a7)
   12970:	0088b423          	sd	s0,8(a7)
   12974:	0cf13023          	sd	a5,192(sp)
   12978:	0ae12c23          	sw	a4,184(sp)
   1297c:	00700693          	li	a3,7
   12980:	01088893          	addi	a7,a7,16
   12984:	02e6d063          	ble	a4,a3,129a4 <_vfprintf_r+0x8e0>
   12988:	0b010613          	addi	a2,sp,176
   1298c:	000a0593          	mv	a1,s4
   12990:	000b8513          	mv	a0,s7
   12994:	4010a0ef          	jal	1d594 <__sprint_r>
   12998:	a2051ee3          	bnez	a0,123d4 <_vfprintf_r+0x310>
   1299c:	0c013783          	ld	a5,192(sp)
   129a0:	000b0893          	mv	a7,s6
   129a4:	100c7713          	andi	a4,s8,256
   129a8:	40071663          	bnez	a4,12db4 <_vfprintf_r+0xcf0>
   129ac:	02012703          	lw	a4,32(sp)
   129b0:	0b812683          	lw	a3,184(sp)
   129b4:	0128b023          	sd	s2,0(a7)
   129b8:	00e787b3          	add	a5,a5,a4
   129bc:	0016869b          	addiw	a3,a3,1
   129c0:	00e8b423          	sd	a4,8(a7)
   129c4:	0cf13023          	sd	a5,192(sp)
   129c8:	0ad12c23          	sw	a3,184(sp)
   129cc:	00700713          	li	a4,7
   129d0:	3cd74263          	blt	a4,a3,12d94 <_vfprintf_r+0xcd0>
   129d4:	01088893          	addi	a7,a7,16
   129d8:	004c7c13          	andi	s8,s8,4
   129dc:	0c0c0063          	beqz	s8,12a9c <_vfprintf_r+0x9d8>
   129e0:	01812703          	lw	a4,24(sp)
   129e4:	00812683          	lw	a3,8(sp)
   129e8:	40d7043b          	subw	s0,a4,a3
   129ec:	0a805863          	blez	s0,12a9c <_vfprintf_r+0x9d8>
   129f0:	01000713          	li	a4,16
   129f4:	748754e3          	ble	s0,a4,1393c <_vfprintf_r+0x1878>
   129f8:	01000913          	li	s2,16
   129fc:	0b812703          	lw	a4,184(sp)
   12a00:	05513823          	sd	s5,80(sp)
   12a04:	00700c13          	li	s8,7
   12a08:	00090d13          	mv	s10,s2
   12a0c:	00c0006f          	j	12a18 <_vfprintf_r+0x954>
   12a10:	ff04041b          	addiw	s0,s0,-16
   12a14:	048d5663          	ble	s0,s10,12a60 <_vfprintf_r+0x99c>
   12a18:	01078793          	addi	a5,a5,16
   12a1c:	0017071b          	addiw	a4,a4,1
   12a20:	0158b023          	sd	s5,0(a7)
   12a24:	0128b423          	sd	s2,8(a7)
   12a28:	0cf13023          	sd	a5,192(sp)
   12a2c:	0ae12c23          	sw	a4,184(sp)
   12a30:	01088893          	addi	a7,a7,16
   12a34:	fcec5ee3          	ble	a4,s8,12a10 <_vfprintf_r+0x94c>
   12a38:	0b010613          	addi	a2,sp,176
   12a3c:	000a0593          	mv	a1,s4
   12a40:	000b8513          	mv	a0,s7
   12a44:	3510a0ef          	jal	1d594 <__sprint_r>
   12a48:	980516e3          	bnez	a0,123d4 <_vfprintf_r+0x310>
   12a4c:	ff04041b          	addiw	s0,s0,-16
   12a50:	0c013783          	ld	a5,192(sp)
   12a54:	0b812703          	lw	a4,184(sp)
   12a58:	000b0893          	mv	a7,s6
   12a5c:	fa8d4ee3          	blt	s10,s0,12a18 <_vfprintf_r+0x954>
   12a60:	05013683          	ld	a3,80(sp)
   12a64:	008787b3          	add	a5,a5,s0
   12a68:	0017071b          	addiw	a4,a4,1
   12a6c:	00d8b023          	sd	a3,0(a7)
   12a70:	0088b423          	sd	s0,8(a7)
   12a74:	0cf13023          	sd	a5,192(sp)
   12a78:	0ae12c23          	sw	a4,184(sp)
   12a7c:	00700693          	li	a3,7
   12a80:	00e6de63          	ble	a4,a3,12a9c <_vfprintf_r+0x9d8>
   12a84:	0b010613          	addi	a2,sp,176
   12a88:	000a0593          	mv	a1,s4
   12a8c:	000b8513          	mv	a0,s7
   12a90:	3050a0ef          	jal	1d594 <__sprint_r>
   12a94:	940510e3          	bnez	a0,123d4 <_vfprintf_r+0x310>
   12a98:	0c013783          	ld	a5,192(sp)
   12a9c:	01812c83          	lw	s9,24(sp)
   12aa0:	00812703          	lw	a4,8(sp)
   12aa4:	00ecd463          	ble	a4,s9,12aac <_vfprintf_r+0x9e8>
   12aa8:	00070c93          	mv	s9,a4
   12aac:	01c12703          	lw	a4,28(sp)
   12ab0:	0197073b          	addw	a4,a4,s9
   12ab4:	00e12e23          	sw	a4,28(sp)
   12ab8:	52079863          	bnez	a5,12fe8 <_vfprintf_r+0xf24>
   12abc:	0009c783          	lbu	a5,0(s3)
   12ac0:	0a012c23          	sw	zero,184(sp)
   12ac4:	000b0893          	mv	a7,s6
   12ac8:	f2079263          	bnez	a5,121ec <_vfprintf_r+0x128>
   12acc:	00098413          	mv	s0,s3
   12ad0:	f80ff06f          	j	12250 <_vfprintf_r+0x18c>
   12ad4:	00060463          	beqz	a2,12adc <_vfprintf_r+0xa18>
   12ad8:	22c0106f          	j	13d04 <_vfprintf_r+0x1c40>
   12adc:	010c7793          	andi	a5,s8,16
   12ae0:	12078e63          	beqz	a5,12c1c <_vfprintf_r+0xb58>
   12ae4:	02813703          	ld	a4,40(sp)
   12ae8:	00073783          	ld	a5,0(a4)
   12aec:	00870713          	addi	a4,a4,8
   12af0:	02e13423          	sd	a4,40(sp)
   12af4:	1407c0e3          	bltz	a5,13434 <_vfprintf_r+0x1370>
   12af8:	08f14603          	lbu	a2,143(sp)
   12afc:	bc044ee3          	bltz	s0,126d8 <_vfprintf_r+0x614>
   12b00:	f7fc7c13          	andi	s8,s8,-129
   12b04:	ae0798e3          	bnez	a5,125f4 <_vfprintf_r+0x530>
   12b08:	6e041a63          	bnez	s0,131fc <_vfprintf_r+0x1138>
   12b0c:	00000413          	li	s0,0
   12b10:	02012023          	sw	zero,32(sp)
   12b14:	000b0913          	mv	s2,s6
   12b18:	9a9ff06f          	j	124c0 <_vfprintf_r+0x3fc>
   12b1c:	040c6c13          	ori	s8,s8,64
   12b20:	f60ff06f          	j	12280 <_vfprintf_r+0x1bc>
   12b24:	00060463          	beqz	a2,12b2c <_vfprintf_r+0xa68>
   12b28:	1d40106f          	j	13cfc <_vfprintf_r+0x1c38>
   12b2c:	02813783          	ld	a5,40(sp)
   12b30:	00100913          	li	s2,1
   12b34:	0007b787          	fld	fa5,0(a5)
   12b38:	00878793          	addi	a5,a5,8
   12b3c:	01113023          	sd	a7,0(sp)
   12b40:	04f13c27          	fsd	fa5,88(sp)
   12b44:	05813c83          	ld	s9,88(sp)
   12b48:	02f13423          	sd	a5,40(sp)
   12b4c:	f20c8553          	fmv.d.x	fa0,s9
   12b50:	0e8070ef          	jal	19c38 <__fpclassifyd>
   12b54:	00013883          	ld	a7,0(sp)
   12b58:	0f251ce3          	bne	a0,s2,13450 <_vfprintf_r+0x138c>
   12b5c:	f20007d3          	fmv.d.x	fa5,zero
   12b60:	f20c8753          	fmv.d.x	fa4,s9
   12b64:	a2f717d3          	flt.d	a5,fa4,fa5
   12b68:	600792e3          	bnez	a5,1396c <_vfprintf_r+0x18a8>
   12b6c:	08f14603          	lbu	a2,143(sp)
   12b70:	04700793          	li	a5,71
   12b74:	3da7d8e3          	ble	s10,a5,13744 <_vfprintf_r+0x1680>
   12b78:	00022937          	lui	s2,0x22
   12b7c:	27090913          	addi	s2,s2,624 # 22270 <zeroes.4123+0x28>
   12b80:	00300793          	li	a5,3
   12b84:	00f12423          	sw	a5,8(sp)
   12b88:	f7fc7c13          	andi	s8,s8,-129
   12b8c:	02f12023          	sw	a5,32(sp)
   12b90:	00000413          	li	s0,0
   12b94:	04012623          	sw	zero,76(sp)
   12b98:	941ff06f          	j	124d8 <_vfprintf_r+0x414>
   12b9c:	008c6c13          	ori	s8,s8,8
   12ba0:	ee0ff06f          	j	12280 <_vfprintf_r+0x1bc>
   12ba4:	00060463          	beqz	a2,12bac <_vfprintf_r+0xae8>
   12ba8:	1280106f          	j	13cd0 <_vfprintf_r+0x1c0c>
   12bac:	000227b7          	lui	a5,0x22
   12bb0:	2a078793          	addi	a5,a5,672 # 222a0 <zeroes.4123+0x58>
   12bb4:	02f13c23          	sd	a5,56(sp)
   12bb8:	010c7793          	andi	a5,s8,16
   12bbc:	b40792e3          	bnez	a5,12700 <_vfprintf_r+0x63c>
   12bc0:	040c7793          	andi	a5,s8,64
   12bc4:	02813703          	ld	a4,40(sp)
   12bc8:	1c0784e3          	beqz	a5,13590 <_vfprintf_r+0x14cc>
   12bcc:	00075783          	lhu	a5,0(a4)
   12bd0:	00870713          	addi	a4,a4,8
   12bd4:	02e13423          	sd	a4,40(sp)
   12bd8:	b39ff06f          	j	12710 <_vfprintf_r+0x64c>
   12bdc:	00060463          	beqz	a2,12be4 <_vfprintf_r+0xb20>
   12be0:	10c0106f          	j	13cec <_vfprintf_r+0x1c28>
   12be4:	010c7793          	andi	a5,s8,16
   12be8:	1a078ce3          	beqz	a5,135a0 <_vfprintf_r+0x14dc>
   12bec:	02813683          	ld	a3,40(sp)
   12bf0:	01c12703          	lw	a4,28(sp)
   12bf4:	0006b783          	ld	a5,0(a3)
   12bf8:	00868693          	addi	a3,a3,8
   12bfc:	02d13423          	sd	a3,40(sp)
   12c00:	00e7b023          	sd	a4,0(a5)
   12c04:	de0ff06f          	j	121e4 <_vfprintf_r+0x120>
   12c08:	00060463          	beqz	a2,12c10 <_vfprintf_r+0xb4c>
   12c0c:	0d40106f          	j	13ce0 <_vfprintf_r+0x1c1c>
   12c10:	010c6c13          	ori	s8,s8,16
   12c14:	010c7793          	andi	a5,s8,16
   12c18:	ec0796e3          	bnez	a5,12ae4 <_vfprintf_r+0xa20>
   12c1c:	040c7793          	andi	a5,s8,64
   12c20:	02813703          	ld	a4,40(sp)
   12c24:	1a0780e3          	beqz	a5,135c4 <_vfprintf_r+0x1500>
   12c28:	00071783          	lh	a5,0(a4)
   12c2c:	00870713          	addi	a4,a4,8
   12c30:	02e13423          	sd	a4,40(sp)
   12c34:	ec1ff06f          	j	12af4 <_vfprintf_r+0xa30>
   12c38:	00022737          	lui	a4,0x22
   12c3c:	2a070713          	addi	a4,a4,672 # 222a0 <zeroes.4123+0x58>
   12c40:	00000613          	li	a2,0
   12c44:	02e13c23          	sd	a4,56(sp)
   12c48:	07800d13          	li	s10,120
   12c4c:	ee0ff06f          	j	1232c <_vfprintf_r+0x268>
   12c50:	00060463          	beqz	a2,12c58 <_vfprintf_r+0xb94>
   12c54:	0c00106f          	j	13d14 <_vfprintf_r+0x1c50>
   12c58:	f60d0263          	beqz	s10,123bc <_vfprintf_r+0x2f8>
   12c5c:	00100793          	li	a5,1
   12c60:	00f12423          	sw	a5,8(sp)
   12c64:	0da10423          	sb	s10,200(sp)
   12c68:	080107a3          	sb	zero,143(sp)
   12c6c:	00000613          	li	a2,0
   12c70:	02f12023          	sw	a5,32(sp)
   12c74:	00000413          	li	s0,0
   12c78:	04012623          	sw	zero,76(sp)
   12c7c:	0c810913          	addi	s2,sp,200
   12c80:	afdff06f          	j	1277c <_vfprintf_r+0x6b8>
   12c84:	02e13423          	sd	a4,40(sp)
   12c88:	00022737          	lui	a4,0x22
   12c8c:	2a070713          	addi	a4,a4,672 # 222a0 <zeroes.4123+0x58>
   12c90:	00068c13          	mv	s8,a3
   12c94:	02e13c23          	sd	a4,56(sp)
   12c98:	07800d13          	li	s10,120
   12c9c:	3a079a63          	bnez	a5,13050 <_vfprintf_r+0xf8c>
   12ca0:	00000613          	li	a2,0
   12ca4:	00200793          	li	a5,2
   12ca8:	00100713          	li	a4,1
   12cac:	54e78863          	beq	a5,a4,131fc <_vfprintf_r+0x1138>
   12cb0:	00200713          	li	a4,2
   12cb4:	e6e78a63          	beq	a5,a4,12328 <_vfprintf_r+0x264>
   12cb8:	00000793          	li	a5,0
   12cbc:	fc4ff06f          	j	12480 <_vfprintf_r+0x3bc>
   12cc0:	0c013783          	ld	a5,192(sp)
   12cc4:	ba1ff06f          	j	12864 <_vfprintf_r+0x7a0>
   12cc8:	07012683          	lw	a3,112(sp)
   12ccc:	00100713          	li	a4,1
   12cd0:	00178793          	addi	a5,a5,1
   12cd4:	6cd75663          	ble	a3,a4,133a0 <_vfprintf_r+0x12dc>
   12cd8:	0b812703          	lw	a4,184(sp)
   12cdc:	00100693          	li	a3,1
   12ce0:	00d8b423          	sd	a3,8(a7)
   12ce4:	0017071b          	addiw	a4,a4,1
   12ce8:	0128b023          	sd	s2,0(a7)
   12cec:	0cf13023          	sd	a5,192(sp)
   12cf0:	0ae12c23          	sw	a4,184(sp)
   12cf4:	00700693          	li	a3,7
   12cf8:	01088893          	addi	a7,a7,16
   12cfc:	6ce6ca63          	blt	a3,a4,133d0 <_vfprintf_r+0x130c>
   12d00:	06813683          	ld	a3,104(sp)
   12d04:	06013603          	ld	a2,96(sp)
   12d08:	0017071b          	addiw	a4,a4,1
   12d0c:	00f687b3          	add	a5,a3,a5
   12d10:	00d8b423          	sd	a3,8(a7)
   12d14:	00c8b023          	sd	a2,0(a7)
   12d18:	0cf13023          	sd	a5,192(sp)
   12d1c:	0ae12c23          	sw	a4,184(sp)
   12d20:	00700693          	li	a3,7
   12d24:	01088893          	addi	a7,a7,16
   12d28:	6ee6c263          	blt	a3,a4,1340c <_vfprintf_r+0x1348>
   12d2c:	f20007d3          	fmv.d.x	fa5,zero
   12d30:	05813707          	fld	fa4,88(sp)
   12d34:	a2f726d3          	feq.d	a3,fa4,fa5
   12d38:	40069c63          	bnez	a3,13150 <_vfprintf_r+0x108c>
   12d3c:	07012683          	lw	a3,112(sp)
   12d40:	00190913          	addi	s2,s2,1
   12d44:	0017071b          	addiw	a4,a4,1
   12d48:	fff6869b          	addiw	a3,a3,-1
   12d4c:	00d787b3          	add	a5,a5,a3
   12d50:	0128b023          	sd	s2,0(a7)
   12d54:	00d8b423          	sd	a3,8(a7)
   12d58:	0cf13023          	sd	a5,192(sp)
   12d5c:	0ae12c23          	sw	a4,184(sp)
   12d60:	00700693          	li	a3,7
   12d64:	26e6c063          	blt	a3,a4,12fc4 <_vfprintf_r+0xf00>
   12d68:	01088893          	addi	a7,a7,16
   12d6c:	07412683          	lw	a3,116(sp)
   12d70:	0a010613          	addi	a2,sp,160
   12d74:	0017071b          	addiw	a4,a4,1
   12d78:	00f687b3          	add	a5,a3,a5
   12d7c:	00c8b023          	sd	a2,0(a7)
   12d80:	00d8b423          	sd	a3,8(a7)
   12d84:	0cf13023          	sd	a5,192(sp)
   12d88:	0ae12c23          	sw	a4,184(sp)
   12d8c:	00700693          	li	a3,7
   12d90:	c4e6d2e3          	ble	a4,a3,129d4 <_vfprintf_r+0x910>
   12d94:	0b010613          	addi	a2,sp,176
   12d98:	000a0593          	mv	a1,s4
   12d9c:	000b8513          	mv	a0,s7
   12da0:	7f40a0ef          	jal	1d594 <__sprint_r>
   12da4:	e2051863          	bnez	a0,123d4 <_vfprintf_r+0x310>
   12da8:	0c013783          	ld	a5,192(sp)
   12dac:	000b0893          	mv	a7,s6
   12db0:	c29ff06f          	j	129d8 <_vfprintf_r+0x914>
   12db4:	06500713          	li	a4,101
   12db8:	f1a758e3          	ble	s10,a4,12cc8 <_vfprintf_r+0xc04>
   12dbc:	f20007d3          	fmv.d.x	fa5,zero
   12dc0:	05813707          	fld	fa4,88(sp)
   12dc4:	a2f72753          	feq.d	a4,fa4,fa5
   12dc8:	28070863          	beqz	a4,13058 <_vfprintf_r+0xf94>
   12dcc:	0b812703          	lw	a4,184(sp)
   12dd0:	000226b7          	lui	a3,0x22
   12dd4:	2c068693          	addi	a3,a3,704 # 222c0 <zeroes.4123+0x78>
   12dd8:	00d8b023          	sd	a3,0(a7)
   12ddc:	00178793          	addi	a5,a5,1
   12de0:	00100693          	li	a3,1
   12de4:	0017071b          	addiw	a4,a4,1
   12de8:	00d8b423          	sd	a3,8(a7)
   12dec:	0cf13023          	sd	a5,192(sp)
   12df0:	0ae12c23          	sw	a4,184(sp)
   12df4:	00700693          	li	a3,7
   12df8:	01088893          	addi	a7,a7,16
   12dfc:	7ee6ca63          	blt	a3,a4,135f0 <_vfprintf_r+0x152c>
   12e00:	09812703          	lw	a4,152(sp)
   12e04:	07012683          	lw	a3,112(sp)
   12e08:	00d74663          	blt	a4,a3,12e14 <_vfprintf_r+0xd50>
   12e0c:	001c7713          	andi	a4,s8,1
   12e10:	bc0704e3          	beqz	a4,129d8 <_vfprintf_r+0x914>
   12e14:	06013703          	ld	a4,96(sp)
   12e18:	06813683          	ld	a3,104(sp)
   12e1c:	01088893          	addi	a7,a7,16
   12e20:	fee8b823          	sd	a4,-16(a7)
   12e24:	0b812703          	lw	a4,184(sp)
   12e28:	00d787b3          	add	a5,a5,a3
   12e2c:	fed8bc23          	sd	a3,-8(a7)
   12e30:	0017071b          	addiw	a4,a4,1
   12e34:	0cf13023          	sd	a5,192(sp)
   12e38:	0ae12c23          	sw	a4,184(sp)
   12e3c:	00700693          	li	a3,7
   12e40:	1ce6c8e3          	blt	a3,a4,13810 <_vfprintf_r+0x174c>
   12e44:	07012703          	lw	a4,112(sp)
   12e48:	fff7041b          	addiw	s0,a4,-1
   12e4c:	b88056e3          	blez	s0,129d8 <_vfprintf_r+0x914>
   12e50:	01000713          	li	a4,16
   12e54:	36875c63          	ble	s0,a4,131cc <_vfprintf_r+0x1108>
   12e58:	01000913          	li	s2,16
   12e5c:	0b812703          	lw	a4,184(sp)
   12e60:	00913823          	sd	s1,16(sp)
   12e64:	00700d13          	li	s10,7
   12e68:	00090693          	mv	a3,s2
   12e6c:	00c0006f          	j	12e78 <_vfprintf_r+0xdb4>
   12e70:	ff04041b          	addiw	s0,s0,-16
   12e74:	3686d063          	ble	s0,a3,131d4 <_vfprintf_r+0x1110>
   12e78:	01078793          	addi	a5,a5,16
   12e7c:	0017071b          	addiw	a4,a4,1
   12e80:	0098b023          	sd	s1,0(a7)
   12e84:	0128b423          	sd	s2,8(a7)
   12e88:	0cf13023          	sd	a5,192(sp)
   12e8c:	0ae12c23          	sw	a4,184(sp)
   12e90:	01088893          	addi	a7,a7,16
   12e94:	fced5ee3          	ble	a4,s10,12e70 <_vfprintf_r+0xdac>
   12e98:	0b010613          	addi	a2,sp,176
   12e9c:	000a0593          	mv	a1,s4
   12ea0:	000b8513          	mv	a0,s7
   12ea4:	00d13023          	sd	a3,0(sp)
   12ea8:	6ec0a0ef          	jal	1d594 <__sprint_r>
   12eac:	d2051463          	bnez	a0,123d4 <_vfprintf_r+0x310>
   12eb0:	0c013783          	ld	a5,192(sp)
   12eb4:	0b812703          	lw	a4,184(sp)
   12eb8:	000b0893          	mv	a7,s6
   12ebc:	00013683          	ld	a3,0(sp)
   12ec0:	fb1ff06f          	j	12e70 <_vfprintf_r+0xdac>
   12ec4:	01812703          	lw	a4,24(sp)
   12ec8:	00812683          	lw	a3,8(sp)
   12ecc:	40d70cbb          	subw	s9,a4,a3
   12ed0:	a19056e3          	blez	s9,128dc <_vfprintf_r+0x818>
   12ed4:	01000713          	li	a4,16
   12ed8:	2f975ee3          	ble	s9,a4,139d4 <_vfprintf_r+0x1910>
   12edc:	01000813          	li	a6,16
   12ee0:	0b812703          	lw	a4,184(sp)
   12ee4:	00913823          	sd	s1,16(sp)
   12ee8:	00700313          	li	t1,7
   12eec:	00080d93          	mv	s11,a6
   12ef0:	00c0006f          	j	12efc <_vfprintf_r+0xe38>
   12ef4:	ff0c8c9b          	addiw	s9,s9,-16
   12ef8:	059dde63          	ble	s9,s11,12f54 <_vfprintf_r+0xe90>
   12efc:	01078793          	addi	a5,a5,16
   12f00:	0017071b          	addiw	a4,a4,1
   12f04:	0098b023          	sd	s1,0(a7)
   12f08:	0108b423          	sd	a6,8(a7)
   12f0c:	0cf13023          	sd	a5,192(sp)
   12f10:	0ae12c23          	sw	a4,184(sp)
   12f14:	01088893          	addi	a7,a7,16
   12f18:	fce35ee3          	ble	a4,t1,12ef4 <_vfprintf_r+0xe30>
   12f1c:	0b010613          	addi	a2,sp,176
   12f20:	000a0593          	mv	a1,s4
   12f24:	000b8513          	mv	a0,s7
   12f28:	04613023          	sd	t1,64(sp)
   12f2c:	01013023          	sd	a6,0(sp)
   12f30:	6640a0ef          	jal	1d594 <__sprint_r>
   12f34:	ca051063          	bnez	a0,123d4 <_vfprintf_r+0x310>
   12f38:	ff0c8c9b          	addiw	s9,s9,-16
   12f3c:	0c013783          	ld	a5,192(sp)
   12f40:	0b812703          	lw	a4,184(sp)
   12f44:	000b0893          	mv	a7,s6
   12f48:	04013303          	ld	t1,64(sp)
   12f4c:	00013803          	ld	a6,0(sp)
   12f50:	fb9dc6e3          	blt	s11,s9,12efc <_vfprintf_r+0xe38>
   12f54:	01013603          	ld	a2,16(sp)
   12f58:	019787b3          	add	a5,a5,s9
   12f5c:	0017071b          	addiw	a4,a4,1
   12f60:	00c8b023          	sd	a2,0(a7)
   12f64:	0198b423          	sd	s9,8(a7)
   12f68:	0cf13023          	sd	a5,192(sp)
   12f6c:	0ae12c23          	sw	a4,184(sp)
   12f70:	00700693          	li	a3,7
   12f74:	01088893          	addi	a7,a7,16
   12f78:	96e6d2e3          	ble	a4,a3,128dc <_vfprintf_r+0x818>
   12f7c:	0b010613          	addi	a2,sp,176
   12f80:	000a0593          	mv	a1,s4
   12f84:	000b8513          	mv	a0,s7
   12f88:	60c0a0ef          	jal	1d594 <__sprint_r>
   12f8c:	c4051463          	bnez	a0,123d4 <_vfprintf_r+0x310>
   12f90:	0c013783          	ld	a5,192(sp)
   12f94:	000b0893          	mv	a7,s6
   12f98:	945ff06f          	j	128dc <_vfprintf_r+0x818>
   12f9c:	00913823          	sd	s1,16(sp)
   12fa0:	01013683          	ld	a3,16(sp)
   12fa4:	008787b3          	add	a5,a5,s0
   12fa8:	0017071b          	addiw	a4,a4,1
   12fac:	00d8b023          	sd	a3,0(a7)
   12fb0:	0088b423          	sd	s0,8(a7)
   12fb4:	0cf13023          	sd	a5,192(sp)
   12fb8:	0ae12c23          	sw	a4,184(sp)
   12fbc:	00700693          	li	a3,7
   12fc0:	dae6d4e3          	ble	a4,a3,12d68 <_vfprintf_r+0xca4>
   12fc4:	0b010613          	addi	a2,sp,176
   12fc8:	000a0593          	mv	a1,s4
   12fcc:	000b8513          	mv	a0,s7
   12fd0:	5c40a0ef          	jal	1d594 <__sprint_r>
   12fd4:	c0051063          	bnez	a0,123d4 <_vfprintf_r+0x310>
   12fd8:	0c013783          	ld	a5,192(sp)
   12fdc:	0b812703          	lw	a4,184(sp)
   12fe0:	000b0893          	mv	a7,s6
   12fe4:	d89ff06f          	j	12d6c <_vfprintf_r+0xca8>
   12fe8:	0b010613          	addi	a2,sp,176
   12fec:	000a0593          	mv	a1,s4
   12ff0:	000b8513          	mv	a0,s7
   12ff4:	5a00a0ef          	jal	1d594 <__sprint_r>
   12ff8:	ac0502e3          	beqz	a0,12abc <_vfprintf_r+0x9f8>
   12ffc:	bd8ff06f          	j	123d4 <_vfprintf_r+0x310>
   13000:	0b010613          	addi	a2,sp,176
   13004:	000a0593          	mv	a1,s4
   13008:	000b8513          	mv	a0,s7
   1300c:	5880a0ef          	jal	1d594 <__sprint_r>
   13010:	bc051263          	bnez	a0,123d4 <_vfprintf_r+0x310>
   13014:	0c013783          	ld	a5,192(sp)
   13018:	000b0893          	mv	a7,s6
   1301c:	87dff06f          	j	12898 <_vfprintf_r+0x7d4>
   13020:	0b010613          	addi	a2,sp,176
   13024:	000a0593          	mv	a1,s4
   13028:	000b8513          	mv	a0,s7
   1302c:	5680a0ef          	jal	1d594 <__sprint_r>
   13030:	ba051263          	bnez	a0,123d4 <_vfprintf_r+0x310>
   13034:	0c013783          	ld	a5,192(sp)
   13038:	000b0893          	mv	a7,s6
   1303c:	895ff06f          	j	128d0 <_vfprintf_r+0x80c>
   13040:	080107a3          	sb	zero,143(sp)
   13044:	c4044ce3          	bltz	s0,12c9c <_vfprintf_r+0xbd8>
   13048:	f7fc7c13          	andi	s8,s8,-129
   1304c:	ac078a63          	beqz	a5,12320 <_vfprintf_r+0x25c>
   13050:	00000613          	li	a2,0
   13054:	ad8ff06f          	j	1232c <_vfprintf_r+0x268>
   13058:	09812403          	lw	s0,152(sp)
   1305c:	5a805c63          	blez	s0,13614 <_vfprintf_r+0x1550>
   13060:	04c12703          	lw	a4,76(sp)
   13064:	07012683          	lw	a3,112(sp)
   13068:	00070413          	mv	s0,a4
   1306c:	00e6d463          	ble	a4,a3,13074 <_vfprintf_r+0xfb0>
   13070:	00068413          	mv	s0,a3
   13074:	02805663          	blez	s0,130a0 <_vfprintf_r+0xfdc>
   13078:	0b812703          	lw	a4,184(sp)
   1307c:	008787b3          	add	a5,a5,s0
   13080:	0128b023          	sd	s2,0(a7)
   13084:	0017071b          	addiw	a4,a4,1
   13088:	0088b423          	sd	s0,8(a7)
   1308c:	0cf13023          	sd	a5,192(sp)
   13090:	0ae12c23          	sw	a4,184(sp)
   13094:	00700693          	li	a3,7
   13098:	01088893          	addi	a7,a7,16
   1309c:	6ae6ca63          	blt	a3,a4,13750 <_vfprintf_r+0x168c>
   130a0:	020448e3          	bltz	s0,138d0 <_vfprintf_r+0x180c>
   130a4:	04c12703          	lw	a4,76(sp)
   130a8:	4087043b          	subw	s0,a4,s0
   130ac:	1a805c63          	blez	s0,13264 <_vfprintf_r+0x11a0>
   130b0:	01000713          	li	a4,16
   130b4:	16875263          	ble	s0,a4,13218 <_vfprintf_r+0x1154>
   130b8:	01000d13          	li	s10,16
   130bc:	0b812703          	lw	a4,184(sp)
   130c0:	00913823          	sd	s1,16(sp)
   130c4:	00700693          	li	a3,7
   130c8:	000d0813          	mv	a6,s10
   130cc:	00c0006f          	j	130d8 <_vfprintf_r+0x1014>
   130d0:	ff04041b          	addiw	s0,s0,-16
   130d4:	14885663          	ble	s0,a6,13220 <_vfprintf_r+0x115c>
   130d8:	01078793          	addi	a5,a5,16
   130dc:	0017071b          	addiw	a4,a4,1
   130e0:	0098b023          	sd	s1,0(a7)
   130e4:	01a8b423          	sd	s10,8(a7)
   130e8:	0cf13023          	sd	a5,192(sp)
   130ec:	0ae12c23          	sw	a4,184(sp)
   130f0:	01088893          	addi	a7,a7,16
   130f4:	fce6dee3          	ble	a4,a3,130d0 <_vfprintf_r+0x100c>
   130f8:	0b010613          	addi	a2,sp,176
   130fc:	000a0593          	mv	a1,s4
   13100:	000b8513          	mv	a0,s7
   13104:	03013023          	sd	a6,32(sp)
   13108:	00d13023          	sd	a3,0(sp)
   1310c:	4880a0ef          	jal	1d594 <__sprint_r>
   13110:	ac051263          	bnez	a0,123d4 <_vfprintf_r+0x310>
   13114:	0c013783          	ld	a5,192(sp)
   13118:	0b812703          	lw	a4,184(sp)
   1311c:	000b0893          	mv	a7,s6
   13120:	02013803          	ld	a6,32(sp)
   13124:	00013683          	ld	a3,0(sp)
   13128:	fa9ff06f          	j	130d0 <_vfprintf_r+0x100c>
   1312c:	0b010613          	addi	a2,sp,176
   13130:	000a0593          	mv	a1,s4
   13134:	000b8513          	mv	a0,s7
   13138:	45c0a0ef          	jal	1d594 <__sprint_r>
   1313c:	a8051c63          	bnez	a0,123d4 <_vfprintf_r+0x310>
   13140:	08f14603          	lbu	a2,143(sp)
   13144:	0c013783          	ld	a5,192(sp)
   13148:	000b0893          	mv	a7,s6
   1314c:	f18ff06f          	j	12864 <_vfprintf_r+0x7a0>
   13150:	07012683          	lw	a3,112(sp)
   13154:	fff6841b          	addiw	s0,a3,-1
   13158:	c0805ae3          	blez	s0,12d6c <_vfprintf_r+0xca8>
   1315c:	01000693          	li	a3,16
   13160:	e286dee3          	ble	s0,a3,12f9c <_vfprintf_r+0xed8>
   13164:	01000913          	li	s2,16
   13168:	00913823          	sd	s1,16(sp)
   1316c:	00700d13          	li	s10,7
   13170:	00090693          	mv	a3,s2
   13174:	00c0006f          	j	13180 <_vfprintf_r+0x10bc>
   13178:	ff04041b          	addiw	s0,s0,-16
   1317c:	e286d2e3          	ble	s0,a3,12fa0 <_vfprintf_r+0xedc>
   13180:	01078793          	addi	a5,a5,16
   13184:	0017071b          	addiw	a4,a4,1
   13188:	0098b023          	sd	s1,0(a7)
   1318c:	0128b423          	sd	s2,8(a7)
   13190:	0cf13023          	sd	a5,192(sp)
   13194:	0ae12c23          	sw	a4,184(sp)
   13198:	01088893          	addi	a7,a7,16
   1319c:	fced5ee3          	ble	a4,s10,13178 <_vfprintf_r+0x10b4>
   131a0:	0b010613          	addi	a2,sp,176
   131a4:	000a0593          	mv	a1,s4
   131a8:	000b8513          	mv	a0,s7
   131ac:	00d13023          	sd	a3,0(sp)
   131b0:	3e40a0ef          	jal	1d594 <__sprint_r>
   131b4:	a2051063          	bnez	a0,123d4 <_vfprintf_r+0x310>
   131b8:	0c013783          	ld	a5,192(sp)
   131bc:	0b812703          	lw	a4,184(sp)
   131c0:	000b0893          	mv	a7,s6
   131c4:	00013683          	ld	a3,0(sp)
   131c8:	fb1ff06f          	j	13178 <_vfprintf_r+0x10b4>
   131cc:	0b812703          	lw	a4,184(sp)
   131d0:	00913823          	sd	s1,16(sp)
   131d4:	01013683          	ld	a3,16(sp)
   131d8:	008787b3          	add	a5,a5,s0
   131dc:	0088b423          	sd	s0,8(a7)
   131e0:	00d8b023          	sd	a3,0(a7)
   131e4:	0017071b          	addiw	a4,a4,1
   131e8:	0cf13023          	sd	a5,192(sp)
   131ec:	0ae12c23          	sw	a4,184(sp)
   131f0:	00700693          	li	a3,7
   131f4:	fee6d063          	ble	a4,a3,129d4 <_vfprintf_r+0x910>
   131f8:	b9dff06f          	j	12d94 <_vfprintf_r+0xcd0>
   131fc:	00000793          	li	a5,0
   13200:	0307879b          	addiw	a5,a5,48
   13204:	0ef107a3          	sb	a5,239(sp)
   13208:	07813783          	ld	a5,120(sp)
   1320c:	0ef10913          	addi	s2,sp,239
   13210:	02f12023          	sw	a5,32(sp)
   13214:	aacff06f          	j	124c0 <_vfprintf_r+0x3fc>
   13218:	0b812703          	lw	a4,184(sp)
   1321c:	00913823          	sd	s1,16(sp)
   13220:	01013683          	ld	a3,16(sp)
   13224:	008787b3          	add	a5,a5,s0
   13228:	0017071b          	addiw	a4,a4,1
   1322c:	00d8b023          	sd	a3,0(a7)
   13230:	0088b423          	sd	s0,8(a7)
   13234:	0cf13023          	sd	a5,192(sp)
   13238:	0ae12c23          	sw	a4,184(sp)
   1323c:	00700693          	li	a3,7
   13240:	01088893          	addi	a7,a7,16
   13244:	02e6d063          	ble	a4,a3,13264 <_vfprintf_r+0x11a0>
   13248:	0b010613          	addi	a2,sp,176
   1324c:	000a0593          	mv	a1,s4
   13250:	000b8513          	mv	a0,s7
   13254:	3400a0ef          	jal	1d594 <__sprint_r>
   13258:	96051e63          	bnez	a0,123d4 <_vfprintf_r+0x310>
   1325c:	0c013783          	ld	a5,192(sp)
   13260:	000b0893          	mv	a7,s6
   13264:	04c12d03          	lw	s10,76(sp)
   13268:	09812703          	lw	a4,152(sp)
   1326c:	07012683          	lw	a3,112(sp)
   13270:	01a90d33          	add	s10,s2,s10
   13274:	0cd74a63          	blt	a4,a3,13348 <_vfprintf_r+0x1284>
   13278:	001c7693          	andi	a3,s8,1
   1327c:	0c069663          	bnez	a3,13348 <_vfprintf_r+0x1284>
   13280:	07012683          	lw	a3,112(sp)
   13284:	00d90433          	add	s0,s2,a3
   13288:	41a40433          	sub	s0,s0,s10
   1328c:	40e6873b          	subw	a4,a3,a4
   13290:	0004041b          	sext.w	s0,s0
   13294:	00875463          	ble	s0,a4,1329c <_vfprintf_r+0x11d8>
   13298:	00070413          	mv	s0,a4
   1329c:	02805663          	blez	s0,132c8 <_vfprintf_r+0x1204>
   132a0:	0b812683          	lw	a3,184(sp)
   132a4:	008787b3          	add	a5,a5,s0
   132a8:	01a8b023          	sd	s10,0(a7)
   132ac:	0016869b          	addiw	a3,a3,1
   132b0:	0088b423          	sd	s0,8(a7)
   132b4:	0cf13023          	sd	a5,192(sp)
   132b8:	0ad12c23          	sw	a3,184(sp)
   132bc:	00700613          	li	a2,7
   132c0:	01088893          	addi	a7,a7,16
   132c4:	4cd64263          	blt	a2,a3,13788 <_vfprintf_r+0x16c4>
   132c8:	60044863          	bltz	s0,138d8 <_vfprintf_r+0x1814>
   132cc:	4087043b          	subw	s0,a4,s0
   132d0:	f0805463          	blez	s0,129d8 <_vfprintf_r+0x914>
   132d4:	01000713          	li	a4,16
   132d8:	ee875ae3          	ble	s0,a4,131cc <_vfprintf_r+0x1108>
   132dc:	01000913          	li	s2,16
   132e0:	0b812703          	lw	a4,184(sp)
   132e4:	00913823          	sd	s1,16(sp)
   132e8:	00700d13          	li	s10,7
   132ec:	00090693          	mv	a3,s2
   132f0:	00c0006f          	j	132fc <_vfprintf_r+0x1238>
   132f4:	ff04041b          	addiw	s0,s0,-16
   132f8:	ec86dee3          	ble	s0,a3,131d4 <_vfprintf_r+0x1110>
   132fc:	01078793          	addi	a5,a5,16
   13300:	0017071b          	addiw	a4,a4,1
   13304:	0098b023          	sd	s1,0(a7)
   13308:	0128b423          	sd	s2,8(a7)
   1330c:	0cf13023          	sd	a5,192(sp)
   13310:	0ae12c23          	sw	a4,184(sp)
   13314:	01088893          	addi	a7,a7,16
   13318:	fced5ee3          	ble	a4,s10,132f4 <_vfprintf_r+0x1230>
   1331c:	0b010613          	addi	a2,sp,176
   13320:	000a0593          	mv	a1,s4
   13324:	000b8513          	mv	a0,s7
   13328:	00d13023          	sd	a3,0(sp)
   1332c:	2680a0ef          	jal	1d594 <__sprint_r>
   13330:	8a051263          	bnez	a0,123d4 <_vfprintf_r+0x310>
   13334:	0c013783          	ld	a5,192(sp)
   13338:	0b812703          	lw	a4,184(sp)
   1333c:	000b0893          	mv	a7,s6
   13340:	00013683          	ld	a3,0(sp)
   13344:	fb1ff06f          	j	132f4 <_vfprintf_r+0x1230>
   13348:	06013683          	ld	a3,96(sp)
   1334c:	06813603          	ld	a2,104(sp)
   13350:	01088893          	addi	a7,a7,16
   13354:	fed8b823          	sd	a3,-16(a7)
   13358:	0b812683          	lw	a3,184(sp)
   1335c:	00c787b3          	add	a5,a5,a2
   13360:	fec8bc23          	sd	a2,-8(a7)
   13364:	0016869b          	addiw	a3,a3,1
   13368:	0cf13023          	sd	a5,192(sp)
   1336c:	0ad12c23          	sw	a3,184(sp)
   13370:	00700613          	li	a2,7
   13374:	f0d656e3          	ble	a3,a2,13280 <_vfprintf_r+0x11bc>
   13378:	0b010613          	addi	a2,sp,176
   1337c:	000a0593          	mv	a1,s4
   13380:	000b8513          	mv	a0,s7
   13384:	2100a0ef          	jal	1d594 <__sprint_r>
   13388:	00050463          	beqz	a0,13390 <_vfprintf_r+0x12cc>
   1338c:	848ff06f          	j	123d4 <_vfprintf_r+0x310>
   13390:	09812703          	lw	a4,152(sp)
   13394:	0c013783          	ld	a5,192(sp)
   13398:	000b0893          	mv	a7,s6
   1339c:	ee5ff06f          	j	13280 <_vfprintf_r+0x11bc>
   133a0:	00ec7733          	and	a4,s8,a4
   133a4:	92071ae3          	bnez	a4,12cd8 <_vfprintf_r+0xc14>
   133a8:	0b812703          	lw	a4,184(sp)
   133ac:	0128b023          	sd	s2,0(a7)
   133b0:	00100693          	li	a3,1
   133b4:	0017071b          	addiw	a4,a4,1
   133b8:	99dff06f          	j	12d54 <_vfprintf_r+0xc90>
   133bc:	02813783          	ld	a5,40(sp)
   133c0:	00878713          	addi	a4,a5,8
   133c4:	0007e783          	lwu	a5,0(a5)
   133c8:	a0045e63          	bgez	s0,125e4 <_vfprintf_r+0x520>
   133cc:	b04ff06f          	j	126d0 <_vfprintf_r+0x60c>
   133d0:	0b010613          	addi	a2,sp,176
   133d4:	000a0593          	mv	a1,s4
   133d8:	000b8513          	mv	a0,s7
   133dc:	1b80a0ef          	jal	1d594 <__sprint_r>
   133e0:	00050463          	beqz	a0,133e8 <_vfprintf_r+0x1324>
   133e4:	ff1fe06f          	j	123d4 <_vfprintf_r+0x310>
   133e8:	0c013783          	ld	a5,192(sp)
   133ec:	0b812703          	lw	a4,184(sp)
   133f0:	000b0893          	mv	a7,s6
   133f4:	90dff06f          	j	12d00 <_vfprintf_r+0xc3c>
   133f8:	02813783          	ld	a5,40(sp)
   133fc:	00878713          	addi	a4,a5,8
   13400:	0007e783          	lwu	a5,0(a5)
   13404:	86045063          	bgez	s0,12464 <_vfprintf_r+0x3a0>
   13408:	a84ff06f          	j	1268c <_vfprintf_r+0x5c8>
   1340c:	0b010613          	addi	a2,sp,176
   13410:	000a0593          	mv	a1,s4
   13414:	000b8513          	mv	a0,s7
   13418:	17c0a0ef          	jal	1d594 <__sprint_r>
   1341c:	00050463          	beqz	a0,13424 <_vfprintf_r+0x1360>
   13420:	fb5fe06f          	j	123d4 <_vfprintf_r+0x310>
   13424:	0c013783          	ld	a5,192(sp)
   13428:	0b812703          	lw	a4,184(sp)
   1342c:	000b0893          	mv	a7,s6
   13430:	8fdff06f          	j	12d2c <_vfprintf_r+0xc68>
   13434:	02d00713          	li	a4,45
   13438:	08e107a3          	sb	a4,143(sp)
   1343c:	40f007b3          	neg	a5,a5
   13440:	4a044063          	bltz	s0,138e0 <_vfprintf_r+0x181c>
   13444:	f7fc7c13          	andi	s8,s8,-129
   13448:	02d00613          	li	a2,45
   1344c:	9a8ff06f          	j	125f4 <_vfprintf_r+0x530>
   13450:	05813507          	fld	fa0,88(sp)
   13454:	01113023          	sd	a7,0(sp)
   13458:	7e0060ef          	jal	19c38 <__fpclassifyd>
   1345c:	00013883          	ld	a7,0(sp)
   13460:	2a050463          	beqz	a0,13708 <_vfprintf_r+0x1644>
   13464:	fff00793          	li	a5,-1
   13468:	fdfd7d93          	andi	s11,s10,-33
   1346c:	62f40c63          	beq	s0,a5,13aa4 <_vfprintf_r+0x19e0>
   13470:	04700793          	li	a5,71
   13474:	62fd8263          	beq	s11,a5,13a98 <_vfprintf_r+0x19d4>
   13478:	05813703          	ld	a4,88(sp)
   1347c:	100c6693          	ori	a3,s8,256
   13480:	00d12023          	sw	a3,0(sp)
   13484:	42075793          	srai	a5,a4,0x20
   13488:	f2070453          	fmv.d.x	fs0,a4
   1348c:	00000c93          	li	s9,0
   13490:	6607c663          	bltz	a5,13afc <_vfprintf_r+0x1a38>
   13494:	06600793          	li	a5,102
   13498:	60fd0a63          	beq	s10,a5,13aac <_vfprintf_r+0x19e8>
   1349c:	04600793          	li	a5,70
   134a0:	72fd0863          	beq	s10,a5,13bd0 <_vfprintf_r+0x1b0c>
   134a4:	fbbd859b          	addiw	a1,s11,-69
   134a8:	0015b593          	seqz	a1,a1
   134ac:	228405d3          	fmv.d	fa1,fs0
   134b0:	00b405bb          	addw	a1,s0,a1
   134b4:	09c10793          	addi	a5,sp,156
   134b8:	00058693          	mv	a3,a1
   134bc:	0a810813          	addi	a6,sp,168
   134c0:	09810713          	addi	a4,sp,152
   134c4:	00200613          	li	a2,2
   134c8:	000b8513          	mv	a0,s7
   134cc:	01113823          	sd	a7,16(sp)
   134d0:	00b13423          	sd	a1,8(sp)
   134d4:	26c020ef          	jal	15740 <_dtoa_r>
   134d8:	06700793          	li	a5,103
   134dc:	00050913          	mv	s2,a0
   134e0:	00813583          	ld	a1,8(sp)
   134e4:	01013883          	ld	a7,16(sp)
   134e8:	46fd0863          	beq	s10,a5,13958 <_vfprintf_r+0x1894>
   134ec:	04700793          	li	a5,71
   134f0:	00b50733          	add	a4,a0,a1
   134f4:	48fd0a63          	beq	s10,a5,13988 <_vfprintf_r+0x18c4>
   134f8:	f20007d3          	fmv.d.x	fa5,zero
   134fc:	00070793          	mv	a5,a4
   13500:	a2f426d3          	feq.d	a3,fs0,fa5
   13504:	02069263          	bnez	a3,13528 <_vfprintf_r+0x1464>
   13508:	0a813783          	ld	a5,168(sp)
   1350c:	00e7fe63          	bleu	a4,a5,13528 <_vfprintf_r+0x1464>
   13510:	03000613          	li	a2,48
   13514:	00178693          	addi	a3,a5,1
   13518:	0ad13423          	sd	a3,168(sp)
   1351c:	00c78023          	sb	a2,0(a5)
   13520:	0a813783          	ld	a5,168(sp)
   13524:	fee7e8e3          	bltu	a5,a4,13514 <_vfprintf_r+0x1450>
   13528:	412787b3          	sub	a5,a5,s2
   1352c:	06f12823          	sw	a5,112(sp)
   13530:	04700793          	li	a5,71
   13534:	46fd8663          	beq	s11,a5,139a0 <_vfprintf_r+0x18dc>
   13538:	06500793          	li	a5,101
   1353c:	7ba7dc63          	ble	s10,a5,13cf4 <_vfprintf_r+0x1c30>
   13540:	06600793          	li	a5,102
   13544:	60fd0263          	beq	s10,a5,13b48 <_vfprintf_r+0x1a84>
   13548:	09812783          	lw	a5,152(sp)
   1354c:	04f12623          	sw	a5,76(sp)
   13550:	04c12703          	lw	a4,76(sp)
   13554:	07012683          	lw	a3,112(sp)
   13558:	00070793          	mv	a5,a4
   1355c:	5ad74663          	blt	a4,a3,13b08 <_vfprintf_r+0x1a44>
   13560:	001c7c13          	andi	s8,s8,1
   13564:	5c0c1463          	bnez	s8,13b2c <_vfprintf_r+0x1a68>
   13568:	76074863          	bltz	a4,13cd8 <_vfprintf_r+0x1c14>
   1356c:	04c12703          	lw	a4,76(sp)
   13570:	06700d13          	li	s10,103
   13574:	02e12023          	sw	a4,32(sp)
   13578:	440c9063          	bnez	s9,139b8 <_vfprintf_r+0x18f4>
   1357c:	08f14603          	lbu	a2,143(sp)
   13580:	00f12423          	sw	a5,8(sp)
   13584:	00012c03          	lw	s8,0(sp)
   13588:	00000413          	li	s0,0
   1358c:	f4dfe06f          	j	124d8 <_vfprintf_r+0x414>
   13590:	00076783          	lwu	a5,0(a4)
   13594:	00870713          	addi	a4,a4,8
   13598:	02e13423          	sd	a4,40(sp)
   1359c:	974ff06f          	j	12710 <_vfprintf_r+0x64c>
   135a0:	02813703          	ld	a4,40(sp)
   135a4:	040c7c13          	andi	s8,s8,64
   135a8:	00073783          	ld	a5,0(a4)
   135ac:	00870713          	addi	a4,a4,8
   135b0:	02e13423          	sd	a4,40(sp)
   135b4:	180c0263          	beqz	s8,13738 <_vfprintf_r+0x1674>
   135b8:	01c15703          	lhu	a4,28(sp)
   135bc:	00e79023          	sh	a4,0(a5)
   135c0:	c25fe06f          	j	121e4 <_vfprintf_r+0x120>
   135c4:	00072783          	lw	a5,0(a4)
   135c8:	00870713          	addi	a4,a4,8
   135cc:	02e13423          	sd	a4,40(sp)
   135d0:	d24ff06f          	j	12af4 <_vfprintf_r+0xa30>
   135d4:	080107a3          	sb	zero,143(sp)
   135d8:	ec044463          	bltz	s0,12ca0 <_vfprintf_r+0xbdc>
   135dc:	f7fc7c13          	andi	s8,s8,-129
   135e0:	d41fe06f          	j	12320 <_vfprintf_r+0x25c>
   135e4:	0b812703          	lw	a4,184(sp)
   135e8:	00913823          	sd	s1,16(sp)
   135ec:	b74ff06f          	j	12960 <_vfprintf_r+0x89c>
   135f0:	0b010613          	addi	a2,sp,176
   135f4:	000a0593          	mv	a1,s4
   135f8:	000b8513          	mv	a0,s7
   135fc:	799090ef          	jal	1d594 <__sprint_r>
   13600:	00050463          	beqz	a0,13608 <_vfprintf_r+0x1544>
   13604:	dd1fe06f          	j	123d4 <_vfprintf_r+0x310>
   13608:	0c013783          	ld	a5,192(sp)
   1360c:	000b0893          	mv	a7,s6
   13610:	ff0ff06f          	j	12e00 <_vfprintf_r+0xd3c>
   13614:	0b812703          	lw	a4,184(sp)
   13618:	000226b7          	lui	a3,0x22
   1361c:	2c068693          	addi	a3,a3,704 # 222c0 <zeroes.4123+0x78>
   13620:	00d8b023          	sd	a3,0(a7)
   13624:	00178793          	addi	a5,a5,1
   13628:	00100693          	li	a3,1
   1362c:	0017071b          	addiw	a4,a4,1
   13630:	00d8b423          	sd	a3,8(a7)
   13634:	0cf13023          	sd	a5,192(sp)
   13638:	0ae12c23          	sw	a4,184(sp)
   1363c:	00700693          	li	a3,7
   13640:	01088893          	addi	a7,a7,16
   13644:	16e6ca63          	blt	a3,a4,137b8 <_vfprintf_r+0x16f4>
   13648:	12040663          	beqz	s0,13774 <_vfprintf_r+0x16b0>
   1364c:	06013703          	ld	a4,96(sp)
   13650:	06813683          	ld	a3,104(sp)
   13654:	01088893          	addi	a7,a7,16
   13658:	fee8b823          	sd	a4,-16(a7)
   1365c:	0b812703          	lw	a4,184(sp)
   13660:	00f687b3          	add	a5,a3,a5
   13664:	fed8bc23          	sd	a3,-8(a7)
   13668:	0017071b          	addiw	a4,a4,1
   1366c:	0cf13023          	sd	a5,192(sp)
   13670:	0ae12c23          	sw	a4,184(sp)
   13674:	00700693          	li	a3,7
   13678:	3ee6ca63          	blt	a3,a4,13a6c <_vfprintf_r+0x19a8>
   1367c:	4080043b          	negw	s0,s0
   13680:	20805263          	blez	s0,13884 <_vfprintf_r+0x17c0>
   13684:	01000693          	li	a3,16
   13688:	1a86d663          	ble	s0,a3,13834 <_vfprintf_r+0x1770>
   1368c:	01000d13          	li	s10,16
   13690:	00913823          	sd	s1,16(sp)
   13694:	00700813          	li	a6,7
   13698:	000d0693          	mv	a3,s10
   1369c:	00c0006f          	j	136a8 <_vfprintf_r+0x15e4>
   136a0:	ff04041b          	addiw	s0,s0,-16
   136a4:	1886da63          	ble	s0,a3,13838 <_vfprintf_r+0x1774>
   136a8:	01078793          	addi	a5,a5,16
   136ac:	0017071b          	addiw	a4,a4,1
   136b0:	0098b023          	sd	s1,0(a7)
   136b4:	01a8b423          	sd	s10,8(a7)
   136b8:	0cf13023          	sd	a5,192(sp)
   136bc:	0ae12c23          	sw	a4,184(sp)
   136c0:	01088893          	addi	a7,a7,16
   136c4:	fce85ee3          	ble	a4,a6,136a0 <_vfprintf_r+0x15dc>
   136c8:	0b010613          	addi	a2,sp,176
   136cc:	000a0593          	mv	a1,s4
   136d0:	000b8513          	mv	a0,s7
   136d4:	02d13023          	sd	a3,32(sp)
   136d8:	01013023          	sd	a6,0(sp)
   136dc:	6b9090ef          	jal	1d594 <__sprint_r>
   136e0:	00050463          	beqz	a0,136e8 <_vfprintf_r+0x1624>
   136e4:	cf1fe06f          	j	123d4 <_vfprintf_r+0x310>
   136e8:	0c013783          	ld	a5,192(sp)
   136ec:	0b812703          	lw	a4,184(sp)
   136f0:	000b0893          	mv	a7,s6
   136f4:	02013683          	ld	a3,32(sp)
   136f8:	00013803          	ld	a6,0(sp)
   136fc:	fa5ff06f          	j	136a0 <_vfprintf_r+0x15dc>
   13700:	fff00513          	li	a0,-1
   13704:	ce5fe06f          	j	123e8 <_vfprintf_r+0x324>
   13708:	04700793          	li	a5,71
   1370c:	27a7c863          	blt	a5,s10,1397c <_vfprintf_r+0x18b8>
   13710:	00022937          	lui	s2,0x22
   13714:	27890913          	addi	s2,s2,632 # 22278 <zeroes.4123+0x30>
   13718:	00300793          	li	a5,3
   1371c:	00f12423          	sw	a5,8(sp)
   13720:	f7fc7c13          	andi	s8,s8,-129
   13724:	08f14603          	lbu	a2,143(sp)
   13728:	02f12023          	sw	a5,32(sp)
   1372c:	00000413          	li	s0,0
   13730:	04012623          	sw	zero,76(sp)
   13734:	da5fe06f          	j	124d8 <_vfprintf_r+0x414>
   13738:	01c12703          	lw	a4,28(sp)
   1373c:	00e7a023          	sw	a4,0(a5)
   13740:	aa5fe06f          	j	121e4 <_vfprintf_r+0x120>
   13744:	00022937          	lui	s2,0x22
   13748:	26890913          	addi	s2,s2,616 # 22268 <zeroes.4123+0x20>
   1374c:	c34ff06f          	j	12b80 <_vfprintf_r+0xabc>
   13750:	0b010613          	addi	a2,sp,176
   13754:	000a0593          	mv	a1,s4
   13758:	000b8513          	mv	a0,s7
   1375c:	639090ef          	jal	1d594 <__sprint_r>
   13760:	00050463          	beqz	a0,13768 <_vfprintf_r+0x16a4>
   13764:	c71fe06f          	j	123d4 <_vfprintf_r+0x310>
   13768:	0c013783          	ld	a5,192(sp)
   1376c:	000b0893          	mv	a7,s6
   13770:	931ff06f          	j	130a0 <_vfprintf_r+0xfdc>
   13774:	07012703          	lw	a4,112(sp)
   13778:	ec071ae3          	bnez	a4,1364c <_vfprintf_r+0x1588>
   1377c:	001c7713          	andi	a4,s8,1
   13780:	a4070c63          	beqz	a4,129d8 <_vfprintf_r+0x914>
   13784:	ec9ff06f          	j	1364c <_vfprintf_r+0x1588>
   13788:	0b010613          	addi	a2,sp,176
   1378c:	000a0593          	mv	a1,s4
   13790:	000b8513          	mv	a0,s7
   13794:	601090ef          	jal	1d594 <__sprint_r>
   13798:	00050463          	beqz	a0,137a0 <_vfprintf_r+0x16dc>
   1379c:	c39fe06f          	j	123d4 <_vfprintf_r+0x310>
   137a0:	09812703          	lw	a4,152(sp)
   137a4:	07012683          	lw	a3,112(sp)
   137a8:	0c013783          	ld	a5,192(sp)
   137ac:	000b0893          	mv	a7,s6
   137b0:	40e6873b          	subw	a4,a3,a4
   137b4:	b15ff06f          	j	132c8 <_vfprintf_r+0x1204>
   137b8:	0b010613          	addi	a2,sp,176
   137bc:	000a0593          	mv	a1,s4
   137c0:	000b8513          	mv	a0,s7
   137c4:	5d1090ef          	jal	1d594 <__sprint_r>
   137c8:	00050463          	beqz	a0,137d0 <_vfprintf_r+0x170c>
   137cc:	c09fe06f          	j	123d4 <_vfprintf_r+0x310>
   137d0:	09812403          	lw	s0,152(sp)
   137d4:	0c013783          	ld	a5,192(sp)
   137d8:	000b0893          	mv	a7,s6
   137dc:	e60418e3          	bnez	s0,1364c <_vfprintf_r+0x1588>
   137e0:	f95ff06f          	j	13774 <_vfprintf_r+0x16b0>
   137e4:	001c7793          	andi	a5,s8,1
   137e8:	00078e63          	beqz	a5,13804 <_vfprintf_r+0x1740>
   137ec:	03000793          	li	a5,48
   137f0:	0ef107a3          	sb	a5,239(sp)
   137f4:	07813783          	ld	a5,120(sp)
   137f8:	0ef10913          	addi	s2,sp,239
   137fc:	02f12023          	sw	a5,32(sp)
   13800:	cc1fe06f          	j	124c0 <_vfprintf_r+0x3fc>
   13804:	02012023          	sw	zero,32(sp)
   13808:	000b0913          	mv	s2,s6
   1380c:	cb5fe06f          	j	124c0 <_vfprintf_r+0x3fc>
   13810:	0b010613          	addi	a2,sp,176
   13814:	000a0593          	mv	a1,s4
   13818:	000b8513          	mv	a0,s7
   1381c:	579090ef          	jal	1d594 <__sprint_r>
   13820:	00050463          	beqz	a0,13828 <_vfprintf_r+0x1764>
   13824:	bb1fe06f          	j	123d4 <_vfprintf_r+0x310>
   13828:	0c013783          	ld	a5,192(sp)
   1382c:	000b0893          	mv	a7,s6
   13830:	e14ff06f          	j	12e44 <_vfprintf_r+0xd80>
   13834:	00913823          	sd	s1,16(sp)
   13838:	01013683          	ld	a3,16(sp)
   1383c:	008787b3          	add	a5,a5,s0
   13840:	0017071b          	addiw	a4,a4,1
   13844:	00d8b023          	sd	a3,0(a7)
   13848:	0088b423          	sd	s0,8(a7)
   1384c:	0cf13023          	sd	a5,192(sp)
   13850:	0ae12c23          	sw	a4,184(sp)
   13854:	00700693          	li	a3,7
   13858:	01088893          	addi	a7,a7,16
   1385c:	02e6d463          	ble	a4,a3,13884 <_vfprintf_r+0x17c0>
   13860:	0b010613          	addi	a2,sp,176
   13864:	000a0593          	mv	a1,s4
   13868:	000b8513          	mv	a0,s7
   1386c:	529090ef          	jal	1d594 <__sprint_r>
   13870:	00050463          	beqz	a0,13878 <_vfprintf_r+0x17b4>
   13874:	b61fe06f          	j	123d4 <_vfprintf_r+0x310>
   13878:	0c013783          	ld	a5,192(sp)
   1387c:	0b812703          	lw	a4,184(sp)
   13880:	000b0893          	mv	a7,s6
   13884:	07012683          	lw	a3,112(sp)
   13888:	0017071b          	addiw	a4,a4,1
   1388c:	0128b023          	sd	s2,0(a7)
   13890:	00f687b3          	add	a5,a3,a5
   13894:	cecff06f          	j	12d80 <_vfprintf_r+0xcbc>
   13898:	00090513          	mv	a0,s2
   1389c:	f08fe0ef          	jal	11fa4 <strlen>
   138a0:	0005079b          	sext.w	a5,a0
   138a4:	02f12023          	sw	a5,32(sp)
   138a8:	00078d93          	mv	s11,a5
   138ac:	00013883          	ld	a7,0(sp)
   138b0:	0007c463          	bltz	a5,138b8 <_vfprintf_r+0x17f4>
   138b4:	cf5fe06f          	j	125a8 <_vfprintf_r+0x4e4>
   138b8:	00000d93          	li	s11,0
   138bc:	cedfe06f          	j	125a8 <_vfprintf_r+0x4e4>
   138c0:	0c013783          	ld	a5,192(sp)
   138c4:	0b812703          	lw	a4,184(sp)
   138c8:	05513823          	sd	s5,80(sp)
   138cc:	f6dfe06f          	j	12838 <_vfprintf_r+0x774>
   138d0:	00000413          	li	s0,0
   138d4:	fd0ff06f          	j	130a4 <_vfprintf_r+0xfe0>
   138d8:	00000413          	li	s0,0
   138dc:	9f1ff06f          	j	132cc <_vfprintf_r+0x1208>
   138e0:	02d00613          	li	a2,45
   138e4:	00100713          	li	a4,1
   138e8:	00100693          	li	a3,1
   138ec:	00d71463          	bne	a4,a3,138f4 <_vfprintf_r+0x1830>
   138f0:	d05fe06f          	j	125f4 <_vfprintf_r+0x530>
   138f4:	00200693          	li	a3,2
   138f8:	00d71463          	bne	a4,a3,13900 <_vfprintf_r+0x183c>
   138fc:	a31fe06f          	j	1232c <_vfprintf_r+0x268>
   13900:	b81fe06f          	j	12480 <_vfprintf_r+0x3bc>
   13904:	00600713          	li	a4,6
   13908:	00877463          	bleu	s0,a4,13910 <_vfprintf_r+0x184c>
   1390c:	00070413          	mv	s0,a4
   13910:	02812023          	sw	s0,32(sp)
   13914:	00040d93          	mv	s11,s0
   13918:	32044a63          	bltz	s0,13c4c <_vfprintf_r+0x1b88>
   1391c:	00022937          	lui	s2,0x22
   13920:	01b12423          	sw	s11,8(sp)
   13924:	03913423          	sd	s9,40(sp)
   13928:	00000613          	li	a2,0
   1392c:	00000413          	li	s0,0
   13930:	04012623          	sw	zero,76(sp)
   13934:	2b890913          	addi	s2,s2,696 # 222b8 <zeroes.4123+0x70>
   13938:	e45fe06f          	j	1277c <_vfprintf_r+0x6b8>
   1393c:	0b812703          	lw	a4,184(sp)
   13940:	05513823          	sd	s5,80(sp)
   13944:	91cff06f          	j	12a60 <_vfprintf_r+0x99c>
   13948:	00070c13          	mv	s8,a4
   1394c:	00000613          	li	a2,0
   13950:	00200713          	li	a4,2
   13954:	f95ff06f          	j	138e8 <_vfprintf_r+0x1824>
   13958:	001c7793          	andi	a5,s8,1
   1395c:	00b50733          	add	a4,a0,a1
   13960:	b8079ce3          	bnez	a5,134f8 <_vfprintf_r+0x1434>
   13964:	0a813783          	ld	a5,168(sp)
   13968:	bc1ff06f          	j	13528 <_vfprintf_r+0x1464>
   1396c:	02d00793          	li	a5,45
   13970:	08f107a3          	sb	a5,143(sp)
   13974:	02d00613          	li	a2,45
   13978:	9f8ff06f          	j	12b70 <_vfprintf_r+0xaac>
   1397c:	00022937          	lui	s2,0x22
   13980:	28090913          	addi	s2,s2,640 # 22280 <zeroes.4123+0x38>
   13984:	d95ff06f          	j	13718 <_vfprintf_r+0x1654>
   13988:	001c7793          	andi	a5,s8,1
   1398c:	26079a63          	bnez	a5,13c00 <_vfprintf_r+0x1b3c>
   13990:	0a813783          	ld	a5,168(sp)
   13994:	412787b3          	sub	a5,a5,s2
   13998:	06f12823          	sw	a5,112(sp)
   1399c:	35ad9c63          	bne	s11,s10,13cf4 <_vfprintf_r+0x1c30>
   139a0:	09812783          	lw	a5,152(sp)
   139a4:	ffd00713          	li	a4,-3
   139a8:	02e7cc63          	blt	a5,a4,139e0 <_vfprintf_r+0x191c>
   139ac:	02f44a63          	blt	s0,a5,139e0 <_vfprintf_r+0x191c>
   139b0:	04f12623          	sw	a5,76(sp)
   139b4:	b9dff06f          	j	13550 <_vfprintf_r+0x148c>
   139b8:	02d00713          	li	a4,45
   139bc:	08e107a3          	sb	a4,143(sp)
   139c0:	00f12423          	sw	a5,8(sp)
   139c4:	00012c03          	lw	s8,0(sp)
   139c8:	02d00613          	li	a2,45
   139cc:	00000413          	li	s0,0
   139d0:	b0dfe06f          	j	124dc <_vfprintf_r+0x418>
   139d4:	0b812703          	lw	a4,184(sp)
   139d8:	00913823          	sd	s1,16(sp)
   139dc:	d78ff06f          	j	12f54 <_vfprintf_r+0xe90>
   139e0:	ffed0d1b          	addiw	s10,s10,-2
   139e4:	fff7879b          	addiw	a5,a5,-1
   139e8:	08f12c23          	sw	a5,152(sp)
   139ec:	0ba10023          	sb	s10,160(sp)
   139f0:	2c07c863          	bltz	a5,13cc0 <_vfprintf_r+0x1bfc>
   139f4:	02b00713          	li	a4,43
   139f8:	0ae100a3          	sb	a4,161(sp)
   139fc:	00900613          	li	a2,9
   13a00:	16f64463          	blt	a2,a5,13b68 <_vfprintf_r+0x1aa4>
   13a04:	0307879b          	addiw	a5,a5,48
   13a08:	03000713          	li	a4,48
   13a0c:	0af101a3          	sb	a5,163(sp)
   13a10:	0ae10123          	sb	a4,162(sp)
   13a14:	0a410793          	addi	a5,sp,164
   13a18:	0a010713          	addi	a4,sp,160
   13a1c:	40e787bb          	subw	a5,a5,a4
   13a20:	07012703          	lw	a4,112(sp)
   13a24:	06f12a23          	sw	a5,116(sp)
   13a28:	00e787bb          	addw	a5,a5,a4
   13a2c:	02f12023          	sw	a5,32(sp)
   13a30:	00100793          	li	a5,1
   13a34:	26e7d263          	ble	a4,a5,13c98 <_vfprintf_r+0x1bd4>
   13a38:	02012783          	lw	a5,32(sp)
   13a3c:	0017879b          	addiw	a5,a5,1
   13a40:	02f12023          	sw	a5,32(sp)
   13a44:	2607c463          	bltz	a5,13cac <_vfprintf_r+0x1be8>
   13a48:	04012623          	sw	zero,76(sp)
   13a4c:	b2dff06f          	j	13578 <_vfprintf_r+0x14b4>
   13a50:	00812423          	sw	s0,8(sp)
   13a54:	02812023          	sw	s0,32(sp)
   13a58:	08f14603          	lbu	a2,143(sp)
   13a5c:	03913423          	sd	s9,40(sp)
   13a60:	00000413          	li	s0,0
   13a64:	04012623          	sw	zero,76(sp)
   13a68:	a71fe06f          	j	124d8 <_vfprintf_r+0x414>
   13a6c:	0b010613          	addi	a2,sp,176
   13a70:	000a0593          	mv	a1,s4
   13a74:	000b8513          	mv	a0,s7
   13a78:	31d090ef          	jal	1d594 <__sprint_r>
   13a7c:	00050463          	beqz	a0,13a84 <_vfprintf_r+0x19c0>
   13a80:	955fe06f          	j	123d4 <_vfprintf_r+0x310>
   13a84:	09812403          	lw	s0,152(sp)
   13a88:	0c013783          	ld	a5,192(sp)
   13a8c:	0b812703          	lw	a4,184(sp)
   13a90:	000b0893          	mv	a7,s6
   13a94:	be9ff06f          	j	1367c <_vfprintf_r+0x15b8>
   13a98:	9e0410e3          	bnez	s0,13478 <_vfprintf_r+0x13b4>
   13a9c:	00090413          	mv	s0,s2
   13aa0:	9d9ff06f          	j	13478 <_vfprintf_r+0x13b4>
   13aa4:	00600413          	li	s0,6
   13aa8:	9d1ff06f          	j	13478 <_vfprintf_r+0x13b4>
   13aac:	228405d3          	fmv.d	fa1,fs0
   13ab0:	09810713          	addi	a4,sp,152
   13ab4:	0a810813          	addi	a6,sp,168
   13ab8:	09c10793          	addi	a5,sp,156
   13abc:	00040693          	mv	a3,s0
   13ac0:	00300613          	li	a2,3
   13ac4:	000b8513          	mv	a0,s7
   13ac8:	01113423          	sd	a7,8(sp)
   13acc:	475010ef          	jal	15740 <_dtoa_r>
   13ad0:	00813883          	ld	a7,8(sp)
   13ad4:	00040713          	mv	a4,s0
   13ad8:	00050913          	mv	s2,a0
   13adc:	00e50733          	add	a4,a0,a4
   13ae0:	00040593          	mv	a1,s0
   13ae4:	00094683          	lbu	a3,0(s2)
   13ae8:	03000793          	li	a5,48
   13aec:	14f68063          	beq	a3,a5,13c2c <_vfprintf_r+0x1b68>
   13af0:	09812583          	lw	a1,152(sp)
   13af4:	00b70733          	add	a4,a4,a1
   13af8:	a01ff06f          	j	134f8 <_vfprintf_r+0x1434>
   13afc:	22841453          	fneg.d	fs0,fs0
   13b00:	02d00c93          	li	s9,45
   13b04:	991ff06f          	j	13494 <_vfprintf_r+0x13d0>
   13b08:	04c12703          	lw	a4,76(sp)
   13b0c:	00100793          	li	a5,1
   13b10:	1ae05263          	blez	a4,13cb4 <_vfprintf_r+0x1bf0>
   13b14:	07012703          	lw	a4,112(sp)
   13b18:	00e787bb          	addw	a5,a5,a4
   13b1c:	02f12023          	sw	a5,32(sp)
   13b20:	0007ce63          	bltz	a5,13b3c <_vfprintf_r+0x1a78>
   13b24:	06700d13          	li	s10,103
   13b28:	a51ff06f          	j	13578 <_vfprintf_r+0x14b4>
   13b2c:	04c12783          	lw	a5,76(sp)
   13b30:	0017879b          	addiw	a5,a5,1
   13b34:	02f12023          	sw	a5,32(sp)
   13b38:	fe07d6e3          	bgez	a5,13b24 <_vfprintf_r+0x1a60>
   13b3c:	00000793          	li	a5,0
   13b40:	06700d13          	li	s10,103
   13b44:	a35ff06f          	j	13578 <_vfprintf_r+0x14b4>
   13b48:	09812783          	lw	a5,152(sp)
   13b4c:	04f12623          	sw	a5,76(sp)
   13b50:	12f05263          	blez	a5,13c74 <_vfprintf_r+0x1bb0>
   13b54:	0a041e63          	bnez	s0,13c10 <_vfprintf_r+0x1b4c>
   13b58:	001c7c13          	andi	s8,s8,1
   13b5c:	0a0c1a63          	bnez	s8,13c10 <_vfprintf_r+0x1b4c>
   13b60:	02f12023          	sw	a5,32(sp)
   13b64:	a15ff06f          	j	13578 <_vfprintf_r+0x14b4>
   13b68:	0af10593          	addi	a1,sp,175
   13b6c:	00058713          	mv	a4,a1
   13b70:	00a00513          	li	a0,10
   13b74:	02a7e6bb          	remw	a3,a5,a0
   13b78:	fff70713          	addi	a4,a4,-1
   13b7c:	02a7c7bb          	divw	a5,a5,a0
   13b80:	0306869b          	addiw	a3,a3,48
   13b84:	00d70023          	sb	a3,0(a4)
   13b88:	fef646e3          	blt	a2,a5,13b74 <_vfprintf_r+0x1ab0>
   13b8c:	0307879b          	addiw	a5,a5,48
   13b90:	0ff7f793          	andi	a5,a5,255
   13b94:	fff70693          	addi	a3,a4,-1
   13b98:	fef70fa3          	sb	a5,-1(a4)
   13b9c:	16b6f863          	bleu	a1,a3,13d0c <_vfprintf_r+0x1c48>
   13ba0:	0a210613          	addi	a2,sp,162
   13ba4:	0080006f          	j	13bac <_vfprintf_r+0x1ae8>
   13ba8:	0006c783          	lbu	a5,0(a3)
   13bac:	00160613          	addi	a2,a2,1 # 2001 <_ftext-0xdfff>
   13bb0:	00168693          	addi	a3,a3,1
   13bb4:	fef60fa3          	sb	a5,-1(a2)
   13bb8:	feb698e3          	bne	a3,a1,13ba8 <_vfprintf_r+0x1ae4>
   13bbc:	0b010793          	addi	a5,sp,176
   13bc0:	40e787b3          	sub	a5,a5,a4
   13bc4:	0a210713          	addi	a4,sp,162
   13bc8:	00f707b3          	add	a5,a4,a5
   13bcc:	e4dff06f          	j	13a18 <_vfprintf_r+0x1954>
   13bd0:	228405d3          	fmv.d	fa1,fs0
   13bd4:	0a810813          	addi	a6,sp,168
   13bd8:	09c10793          	addi	a5,sp,156
   13bdc:	09810713          	addi	a4,sp,152
   13be0:	00040693          	mv	a3,s0
   13be4:	00300613          	li	a2,3
   13be8:	000b8513          	mv	a0,s7
   13bec:	01113423          	sd	a7,8(sp)
   13bf0:	351010ef          	jal	15740 <_dtoa_r>
   13bf4:	00813883          	ld	a7,8(sp)
   13bf8:	00050913          	mv	s2,a0
   13bfc:	00040593          	mv	a1,s0
   13c00:	04600793          	li	a5,70
   13c04:	00b90733          	add	a4,s2,a1
   13c08:	ecfd0ee3          	beq	s10,a5,13ae4 <_vfprintf_r+0x1a20>
   13c0c:	8edff06f          	j	134f8 <_vfprintf_r+0x1434>
   13c10:	04c12783          	lw	a5,76(sp)
   13c14:	0014041b          	addiw	s0,s0,1
   13c18:	008787bb          	addw	a5,a5,s0
   13c1c:	02f12023          	sw	a5,32(sp)
   13c20:	9407dce3          	bgez	a5,13578 <_vfprintf_r+0x14b4>
   13c24:	00000793          	li	a5,0
   13c28:	951ff06f          	j	13578 <_vfprintf_r+0x14b4>
   13c2c:	f20007d3          	fmv.d.x	fa5,zero
   13c30:	a2f427d3          	feq.d	a5,fs0,fa5
   13c34:	ea079ee3          	bnez	a5,13af0 <_vfprintf_r+0x1a2c>
   13c38:	00100793          	li	a5,1
   13c3c:	40b785bb          	subw	a1,a5,a1
   13c40:	08b12c23          	sw	a1,152(sp)
   13c44:	00b70733          	add	a4,a4,a1
   13c48:	8b1ff06f          	j	134f8 <_vfprintf_r+0x1434>
   13c4c:	00000d93          	li	s11,0
   13c50:	ccdff06f          	j	1391c <_vfprintf_r+0x1858>
   13c54:	02813783          	ld	a5,40(sp)
   13c58:	0007a403          	lw	s0,0(a5)
   13c5c:	00878793          	addi	a5,a5,8
   13c60:	02f13423          	sd	a5,40(sp)
   13c64:	00044463          	bltz	s0,13c6c <_vfprintf_r+0x1ba8>
   13c68:	e18fe06f          	j	12280 <_vfprintf_r+0x1bc>
   13c6c:	fff00413          	li	s0,-1
   13c70:	e10fe06f          	j	12280 <_vfprintf_r+0x1bc>
   13c74:	00041a63          	bnez	s0,13c88 <_vfprintf_r+0x1bc4>
   13c78:	00100793          	li	a5,1
   13c7c:	00fc7c33          	and	s8,s8,a5
   13c80:	02f12023          	sw	a5,32(sp)
   13c84:	8e0c0ae3          	beqz	s8,13578 <_vfprintf_r+0x14b4>
   13c88:	0024079b          	addiw	a5,s0,2
   13c8c:	02f12023          	sw	a5,32(sp)
   13c90:	8e07d4e3          	bgez	a5,13578 <_vfprintf_r+0x14b4>
   13c94:	f91ff06f          	j	13c24 <_vfprintf_r+0x1b60>
   13c98:	00fc7c33          	and	s8,s8,a5
   13c9c:	d80c1ee3          	bnez	s8,13a38 <_vfprintf_r+0x1974>
   13ca0:	02012703          	lw	a4,32(sp)
   13ca4:	00070793          	mv	a5,a4
   13ca8:	da0750e3          	bgez	a4,13a48 <_vfprintf_r+0x1984>
   13cac:	00000793          	li	a5,0
   13cb0:	d99ff06f          	j	13a48 <_vfprintf_r+0x1984>
   13cb4:	00200793          	li	a5,2
   13cb8:	40e787bb          	subw	a5,a5,a4
   13cbc:	e59ff06f          	j	13b14 <_vfprintf_r+0x1a50>
   13cc0:	02d00713          	li	a4,45
   13cc4:	40f007bb          	negw	a5,a5
   13cc8:	0ae100a3          	sb	a4,161(sp)
   13ccc:	d31ff06f          	j	139fc <_vfprintf_r+0x1938>
   13cd0:	08b107a3          	sb	a1,143(sp)
   13cd4:	ed9fe06f          	j	12bac <_vfprintf_r+0xae8>
   13cd8:	00000793          	li	a5,0
   13cdc:	891ff06f          	j	1356c <_vfprintf_r+0x14a8>
   13ce0:	08b107a3          	sb	a1,143(sp)
   13ce4:	010c6c13          	ori	s8,s8,16
   13ce8:	f2dfe06f          	j	12c14 <_vfprintf_r+0xb50>
   13cec:	08b107a3          	sb	a1,143(sp)
   13cf0:	ef5fe06f          	j	12be4 <_vfprintf_r+0xb20>
   13cf4:	09812783          	lw	a5,152(sp)
   13cf8:	cedff06f          	j	139e4 <_vfprintf_r+0x1920>
   13cfc:	08b107a3          	sb	a1,143(sp)
   13d00:	e2dfe06f          	j	12b2c <_vfprintf_r+0xa68>
   13d04:	08b107a3          	sb	a1,143(sp)
   13d08:	dd5fe06f          	j	12adc <_vfprintf_r+0xa18>
   13d0c:	0a210793          	addi	a5,sp,162
   13d10:	d09ff06f          	j	13a18 <_vfprintf_r+0x1954>
   13d14:	08b107a3          	sb	a1,143(sp)
   13d18:	f41fe06f          	j	12c58 <_vfprintf_r+0xb94>
   13d1c:	08b107a3          	sb	a1,143(sp)
   13d20:	f28fe06f          	j	12448 <_vfprintf_r+0x384>
   13d24:	08b107a3          	sb	a1,143(sp)
   13d28:	9c5fe06f          	j	126ec <_vfprintf_r+0x628>
   13d2c:	08b107a3          	sb	a1,143(sp)
   13d30:	010c6c13          	ori	s8,s8,16
   13d34:	979fe06f          	j	126ac <_vfprintf_r+0x5e8>
   13d38:	08b107a3          	sb	a1,143(sp)
   13d3c:	010c6c13          	ori	s8,s8,16
   13d40:	929fe06f          	j	12668 <_vfprintf_r+0x5a4>
   13d44:	08b107a3          	sb	a1,143(sp)
   13d48:	881fe06f          	j	125c8 <_vfprintf_r+0x504>

0000000000013d4c <vfprintf>:
   13d4c:	00060693          	mv	a3,a2
   13d50:	00058613          	mv	a2,a1
   13d54:	00050593          	mv	a1,a0
   13d58:	8101b503          	ld	a0,-2032(gp) # 249e0 <_impure_ptr>
   13d5c:	b68fe06f          	j	120c4 <_vfprintf_r>

0000000000013d60 <__sbprintf>:
   13d60:	0105d783          	lhu	a5,16(a1)
   13d64:	0ac5ae03          	lw	t3,172(a1)
   13d68:	0125d303          	lhu	t1,18(a1)
   13d6c:	0305b883          	ld	a7,48(a1)
   13d70:	0405b803          	ld	a6,64(a1)
   13d74:	b3010113          	addi	sp,sp,-1232
   13d78:	ffd7f793          	andi	a5,a5,-3
   13d7c:	40000713          	li	a4,1024
   13d80:	4c813023          	sd	s0,1216(sp)
   13d84:	00f11823          	sh	a5,16(sp)
   13d88:	00058413          	mv	s0,a1
   13d8c:	0b010793          	addi	a5,sp,176
   13d90:	00010593          	mv	a1,sp
   13d94:	4a913c23          	sd	s1,1208(sp)
   13d98:	4b213823          	sd	s2,1200(sp)
   13d9c:	4c113423          	sd	ra,1224(sp)
   13da0:	00050913          	mv	s2,a0
   13da4:	0bc12623          	sw	t3,172(sp)
   13da8:	00611923          	sh	t1,18(sp)
   13dac:	03113823          	sd	a7,48(sp)
   13db0:	05013023          	sd	a6,64(sp)
   13db4:	00f13023          	sd	a5,0(sp)
   13db8:	00f13c23          	sd	a5,24(sp)
   13dbc:	00e12623          	sw	a4,12(sp)
   13dc0:	02e12023          	sw	a4,32(sp)
   13dc4:	02012423          	sw	zero,40(sp)
   13dc8:	afcfe0ef          	jal	120c4 <_vfprintf_r>
   13dcc:	00050493          	mv	s1,a0
   13dd0:	00054a63          	bltz	a0,13de4 <__sbprintf+0x84>
   13dd4:	00010593          	mv	a1,sp
   13dd8:	00090513          	mv	a0,s2
   13ddc:	4cd020ef          	jal	16aa8 <_fflush_r>
   13de0:	02051c63          	bnez	a0,13e18 <__sbprintf+0xb8>
   13de4:	01015783          	lhu	a5,16(sp)
   13de8:	0407f793          	andi	a5,a5,64
   13dec:	00078863          	beqz	a5,13dfc <__sbprintf+0x9c>
   13df0:	01045783          	lhu	a5,16(s0)
   13df4:	0407e793          	ori	a5,a5,64
   13df8:	00f41823          	sh	a5,16(s0)
   13dfc:	4c813083          	ld	ra,1224(sp)
   13e00:	00048513          	mv	a0,s1
   13e04:	4c013403          	ld	s0,1216(sp)
   13e08:	4b813483          	ld	s1,1208(sp)
   13e0c:	4b013903          	ld	s2,1200(sp)
   13e10:	4d010113          	addi	sp,sp,1232
   13e14:	00008067          	ret
   13e18:	fff00493          	li	s1,-1
   13e1c:	fc9ff06f          	j	13de4 <__sbprintf+0x84>

0000000000013e20 <__svfscanf_r>:
   13e20:	cb010113          	addi	sp,sp,-848
   13e24:	31813023          	sd	s8,768(sp)
   13e28:	00058c13          	mv	s8,a1
   13e2c:	01059583          	lh	a1,16(a1)
   13e30:	34813023          	sd	s0,832(sp)
   13e34:	32913c23          	sd	s1,824(sp)
   13e38:	31613823          	sd	s6,784(sp)
   13e3c:	34113423          	sd	ra,840(sp)
   13e40:	33213823          	sd	s2,816(sp)
   13e44:	33313423          	sd	s3,808(sp)
   13e48:	33413023          	sd	s4,800(sp)
   13e4c:	31513c23          	sd	s5,792(sp)
   13e50:	31713423          	sd	s7,776(sp)
   13e54:	2f913c23          	sd	s9,760(sp)
   13e58:	2fa13823          	sd	s10,752(sp)
   13e5c:	2fb13423          	sd	s11,744(sp)
   13e60:	2c813c27          	fsd	fs0,728(sp)
   13e64:	03259793          	slli	a5,a1,0x32
   13e68:	00050493          	mv	s1,a0
   13e6c:	00060413          	mv	s0,a2
   13e70:	00068b13          	mv	s6,a3
   13e74:	0207c263          	bltz	a5,13e98 <__svfscanf_r+0x78>
   13e78:	0acc2603          	lw	a2,172(s8)
   13e7c:	ffffe737          	lui	a4,0xffffe
   13e80:	000026b7          	lui	a3,0x2
   13e84:	fff7071b          	addiw	a4,a4,-1
   13e88:	00d5e5b3          	or	a1,a1,a3
   13e8c:	00e67733          	and	a4,a2,a4
   13e90:	00bc1823          	sh	a1,16(s8)
   13e94:	0aec2623          	sw	a4,172(s8)
   13e98:	000227b7          	lui	a5,0x22
   13e9c:	80078793          	addi	a5,a5,-2048 # 21800 <zeroes.4194+0x330>
   13ea0:	fffff737          	lui	a4,0xfffff
   13ea4:	000219b7          	lui	s3,0x21
   13ea8:	00f13c23          	sd	a5,24(sp)
   13eac:	47f7079b          	addiw	a5,a4,1151
   13eb0:	02013423          	sd	zero,40(sp)
   13eb4:	00012823          	sw	zero,16(sp)
   13eb8:	00000b93          	li	s7,0
   13ebc:	00012a23          	sw	zero,20(sp)
   13ec0:	4e098993          	addi	s3,s3,1248 # 214e0 <zeroes.4194+0x10>
   13ec4:	04f12423          	sw	a5,72(sp)
   13ec8:	00044703          	lbu	a4,0(s0)
   13ecc:	00140413          	addi	s0,s0,1
   13ed0:	06e12223          	sw	a4,100(sp)
   13ed4:	00070693          	mv	a3,a4
   13ed8:	06070e63          	beqz	a4,13f54 <__svfscanf_r+0x134>
   13edc:	8281b503          	ld	a0,-2008(gp) # 249f8 <__ctype_ptr__>
   13ee0:	00e50733          	add	a4,a0,a4
   13ee4:	00174703          	lbu	a4,1(a4) # fffffffffffff001 <_end+0xfffffffffffd7c89>
   13ee8:	00877713          	andi	a4,a4,8
   13eec:	06070863          	beqz	a4,13f5c <__svfscanf_r+0x13c>
   13ef0:	008c2703          	lw	a4,8(s8)
   13ef4:	02e05e63          	blez	a4,13f30 <__svfscanf_r+0x110>
   13ef8:	000c3683          	ld	a3,0(s8)
   13efc:	8281b703          	ld	a4,-2008(gp) # 249f8 <__ctype_ptr__>
   13f00:	0006c603          	lbu	a2,0(a3) # 2000 <_ftext-0xe000>
   13f04:	00c70733          	add	a4,a4,a2
   13f08:	00174703          	lbu	a4,1(a4)
   13f0c:	00877713          	andi	a4,a4,8
   13f10:	fa070ce3          	beqz	a4,13ec8 <__svfscanf_r+0xa8>
   13f14:	008c2703          	lw	a4,8(s8)
   13f18:	00168693          	addi	a3,a3,1
   13f1c:	00dc3023          	sd	a3,0(s8)
   13f20:	fff7071b          	addiw	a4,a4,-1
   13f24:	00ec2423          	sw	a4,8(s8)
   13f28:	001b8b9b          	addiw	s7,s7,1
   13f2c:	fce046e3          	bgtz	a4,13ef8 <__svfscanf_r+0xd8>
   13f30:	000c0593          	mv	a1,s8
   13f34:	00048513          	mv	a0,s1
   13f38:	1f5050ef          	jal	1992c <__srefill_r>
   13f3c:	fa050ee3          	beqz	a0,13ef8 <__svfscanf_r+0xd8>
   13f40:	00044703          	lbu	a4,0(s0)
   13f44:	00140413          	addi	s0,s0,1
   13f48:	06e12223          	sw	a4,100(sp)
   13f4c:	00070693          	mv	a3,a4
   13f50:	f80716e3          	bnez	a4,13edc <__svfscanf_r+0xbc>
   13f54:	01412503          	lw	a0,20(sp)
   13f58:	06c0006f          	j	13fc4 <__svfscanf_r+0x1a4>
   13f5c:	02500713          	li	a4,37
   13f60:	02e69663          	bne	a3,a4,13f8c <__svfscanf_r+0x16c>
   13f64:	00000a93          	li	s5,0
   13f68:	00000913          	li	s2,0
   13f6c:	07800613          	li	a2,120
   13f70:	00140413          	addi	s0,s0,1
   13f74:	fff44683          	lbu	a3,-1(s0)
   13f78:	1ad66a63          	bltu	a2,a3,1412c <__svfscanf_r+0x30c>
   13f7c:	00269713          	slli	a4,a3,0x2
   13f80:	01370733          	add	a4,a4,s3
   13f84:	00072703          	lw	a4,0(a4)
   13f88:	00070067          	jr	a4
   13f8c:	008c2703          	lw	a4,8(s8)
   13f90:	58e05a63          	blez	a4,14524 <__svfscanf_r+0x704>
   13f94:	000c3703          	ld	a4,0(s8)
   13f98:	fff44683          	lbu	a3,-1(s0)
   13f9c:	00074603          	lbu	a2,0(a4)
   13fa0:	fad61ae3          	bne	a2,a3,13f54 <__svfscanf_r+0x134>
   13fa4:	008c2683          	lw	a3,8(s8)
   13fa8:	00170713          	addi	a4,a4,1
   13fac:	00ec3023          	sd	a4,0(s8)
   13fb0:	fff6871b          	addiw	a4,a3,-1
   13fb4:	00ec2423          	sw	a4,8(s8)
   13fb8:	001b8b9b          	addiw	s7,s7,1
   13fbc:	f0dff06f          	j	13ec8 <__svfscanf_r+0xa8>
   13fc0:	fff00513          	li	a0,-1
   13fc4:	34813083          	ld	ra,840(sp)
   13fc8:	34013403          	ld	s0,832(sp)
   13fcc:	33813483          	ld	s1,824(sp)
   13fd0:	33013903          	ld	s2,816(sp)
   13fd4:	32813983          	ld	s3,808(sp)
   13fd8:	32013a03          	ld	s4,800(sp)
   13fdc:	31813a83          	ld	s5,792(sp)
   13fe0:	31013b03          	ld	s6,784(sp)
   13fe4:	30813b83          	ld	s7,776(sp)
   13fe8:	30013c03          	ld	s8,768(sp)
   13fec:	2f813c83          	ld	s9,760(sp)
   13ff0:	2f013d03          	ld	s10,752(sp)
   13ff4:	2e813d83          	ld	s11,744(sp)
   13ff8:	2d813407          	fld	fs0,728(sp)
   13ffc:	35010113          	addi	sp,sp,848
   14000:	00008067          	ret
   14004:	008c2703          	lw	a4,8(s8)
   14008:	0001ba37          	lui	s4,0x1b
   1400c:	3e0a0793          	addi	a5,s4,992 # 1b3e0 <_strtoul_r>
   14010:	02f13423          	sd	a5,40(sp)
   14014:	00a00793          	li	a5,10
   14018:	00f12823          	sw	a5,16(sp)
   1401c:	00300c93          	li	s9,3
   14020:	02e05e63          	blez	a4,1405c <__svfscanf_r+0x23c>
   14024:	000c3683          	ld	a3,0(s8)
   14028:	00c0006f          	j	14034 <__svfscanf_r+0x214>
   1402c:	00168693          	addi	a3,a3,1
   14030:	00dc3023          	sd	a3,0(s8)
   14034:	0006c603          	lbu	a2,0(a3)
   14038:	00c50733          	add	a4,a0,a2
   1403c:	00174703          	lbu	a4,1(a4)
   14040:	00877593          	andi	a1,a4,8
   14044:	58058063          	beqz	a1,145c4 <__svfscanf_r+0x7a4>
   14048:	008c2703          	lw	a4,8(s8)
   1404c:	001b8b9b          	addiw	s7,s7,1
   14050:	fff7071b          	addiw	a4,a4,-1
   14054:	00ec2423          	sw	a4,8(s8)
   14058:	fce04ae3          	bgtz	a4,1402c <__svfscanf_r+0x20c>
   1405c:	000c0593          	mv	a1,s8
   14060:	00048513          	mv	a0,s1
   14064:	0c9050ef          	jal	1992c <__srefill_r>
   14068:	04051863          	bnez	a0,140b8 <__svfscanf_r+0x298>
   1406c:	8281b503          	ld	a0,-2008(gp) # 249f8 <__ctype_ptr__>
   14070:	fb5ff06f          	j	14024 <__svfscanf_r+0x204>
   14074:	008c2703          	lw	a4,8(s8)
   14078:	00200c93          	li	s9,2
   1407c:	fae044e3          	bgtz	a4,14024 <__svfscanf_r+0x204>
   14080:	fddff06f          	j	1405c <__svfscanf_r+0x23c>
   14084:	008c2703          	lw	a4,8(s8)
   14088:	220aea93          	ori	s5,s5,544
   1408c:	0001ba37          	lui	s4,0x1b
   14090:	3e0a0793          	addi	a5,s4,992 # 1b3e0 <_strtoul_r>
   14094:	02f13423          	sd	a5,40(sp)
   14098:	01000793          	li	a5,16
   1409c:	00f12823          	sw	a5,16(sp)
   140a0:	00300c93          	li	s9,3
   140a4:	f8e040e3          	bgtz	a4,14024 <__svfscanf_r+0x204>
   140a8:	000c0593          	mv	a1,s8
   140ac:	00048513          	mv	a0,s1
   140b0:	07d050ef          	jal	1992c <__srefill_r>
   140b4:	fa050ce3          	beqz	a0,1406c <__svfscanf_r+0x24c>
   140b8:	01412703          	lw	a4,20(sp)
   140bc:	fff00513          	li	a0,-1
   140c0:	f00702e3          	beqz	a4,13fc4 <__svfscanf_r+0x1a4>
   140c4:	010c5783          	lhu	a5,16(s8)
   140c8:	0407f793          	andi	a5,a5,64
   140cc:	ee079ce3          	bnez	a5,13fc4 <__svfscanf_r+0x1a4>
   140d0:	00070513          	mv	a0,a4
   140d4:	ef1ff06f          	j	13fc4 <__svfscanf_r+0x1a4>
   140d8:	008c2703          	lw	a4,8(s8)
   140dc:	4ce05863          	blez	a4,145ac <__svfscanf_r+0x78c>
   140e0:	0001ba37          	lui	s4,0x1b
   140e4:	3e0a0793          	addi	a5,s4,992 # 1b3e0 <_strtoul_r>
   140e8:	02f13423          	sd	a5,40(sp)
   140ec:	00800793          	li	a5,8
   140f0:	00f12823          	sw	a5,16(sp)
   140f4:	00300c93          	li	s9,3
   140f8:	f2dff06f          	j	14024 <__svfscanf_r+0x204>
   140fc:	010af713          	andi	a4,s5,16
   14100:	dc0714e3          	bnez	a4,13ec8 <__svfscanf_r+0xa8>
   14104:	004af713          	andi	a4,s5,4
   14108:	42070e63          	beqz	a4,14544 <__svfscanf_r+0x724>
   1410c:	000b3703          	ld	a4,0(s6)
   14110:	008b0b13          	addi	s6,s6,8
   14114:	01771023          	sh	s7,0(a4)
   14118:	db1ff06f          	j	13ec8 <__svfscanf_r+0xa8>
   1411c:	00140413          	addi	s0,s0,1
   14120:	fff44683          	lbu	a3,-1(s0)
   14124:	001aea93          	ori	s5,s5,1
   14128:	e4d67ae3          	bleu	a3,a2,13f7c <__svfscanf_r+0x15c>
   1412c:	00d506b3          	add	a3,a0,a3
   14130:	0016c703          	lbu	a4,1(a3)
   14134:	00100693          	li	a3,1
   14138:	00377713          	andi	a4,a4,3
   1413c:	3ed70e63          	beq	a4,a3,14538 <__svfscanf_r+0x718>
   14140:	008c2703          	lw	a4,8(s8)
   14144:	1440006f          	j	14288 <__svfscanf_r+0x468>
   14148:	004aea93          	ori	s5,s5,4
   1414c:	e25ff06f          	j	13f70 <__svfscanf_r+0x150>
   14150:	008c2703          	lw	a4,8(s8)
   14154:	40e05463          	blez	a4,1455c <__svfscanf_r+0x73c>
   14158:	0001ba37          	lui	s4,0x1b
   1415c:	1f0a0793          	addi	a5,s4,496 # 1b1f0 <_strtol_r>
   14160:	02f13423          	sd	a5,40(sp)
   14164:	00a00793          	li	a5,10
   14168:	00f12823          	sw	a5,16(sp)
   1416c:	00300c93          	li	s9,3
   14170:	eb5ff06f          	j	14024 <__svfscanf_r+0x204>
   14174:	008c2703          	lw	a4,8(s8)
   14178:	34e05663          	blez	a4,144c4 <__svfscanf_r+0x6a4>
   1417c:	00091463          	bnez	s2,14184 <__svfscanf_r+0x364>
   14180:	00100913          	li	s2,1
   14184:	001af713          	andi	a4,s5,1
   14188:	22071063          	bnez	a4,143a8 <__svfscanf_r+0x588>
   1418c:	010afa93          	andi	s5,s5,16
   14190:	360a8063          	beqz	s5,144f0 <__svfscanf_r+0x6d0>
   14194:	00000a93          	li	s5,0
   14198:	0280006f          	j	141c0 <__svfscanf_r+0x3a0>
   1419c:	000c3683          	ld	a3,0(s8)
   141a0:	000c0593          	mv	a1,s8
   141a4:	00048513          	mv	a0,s1
   141a8:	00e686b3          	add	a3,a3,a4
   141ac:	00dc3023          	sd	a3,0(s8)
   141b0:	00ea8ab3          	add	s5,s5,a4
   141b4:	40e90933          	sub	s2,s2,a4
   141b8:	774050ef          	jal	1992c <__srefill_r>
   141bc:	30051e63          	bnez	a0,144d8 <__svfscanf_r+0x6b8>
   141c0:	008c2703          	lw	a4,8(s8)
   141c4:	0009069b          	sext.w	a3,s2
   141c8:	fcd74ae3          	blt	a4,a3,1419c <__svfscanf_r+0x37c>
   141cc:	000c3603          	ld	a2,0(s8)
   141d0:	40d7073b          	subw	a4,a4,a3
   141d4:	012a8ab3          	add	s5,s5,s2
   141d8:	01260333          	add	t1,a2,s2
   141dc:	00ec2423          	sw	a4,8(s8)
   141e0:	006c3023          	sd	t1,0(s8)
   141e4:	017a8bbb          	addw	s7,s5,s7
   141e8:	ce1ff06f          	j	13ec8 <__svfscanf_r+0xa8>
   141ec:	00040593          	mv	a1,s0
   141f0:	07010513          	addi	a0,sp,112
   141f4:	181050ef          	jal	19b74 <__sccl>
   141f8:	008c2703          	lw	a4,8(s8)
   141fc:	00050413          	mv	s0,a0
   14200:	38e05063          	blez	a4,14580 <__svfscanf_r+0x760>
   14204:	000c3683          	ld	a3,0(s8)
   14208:	0006c703          	lbu	a4,0(a3)
   1420c:	10090263          	beqz	s2,14310 <__svfscanf_r+0x4f0>
   14210:	010afa93          	andi	s5,s5,16
   14214:	100a8463          	beqz	s5,1431c <__svfscanf_r+0x4fc>
   14218:	00000a93          	li	s5,0
   1421c:	0080006f          	j	14224 <__svfscanf_r+0x404>
   14220:	0006c703          	lbu	a4,0(a3)
   14224:	2d010793          	addi	a5,sp,720
   14228:	00e78733          	add	a4,a5,a4
   1422c:	da074703          	lbu	a4,-608(a4)
   14230:	2a070a63          	beqz	a4,144e4 <__svfscanf_r+0x6c4>
   14234:	008c2703          	lw	a4,8(s8)
   14238:	00168693          	addi	a3,a3,1
   1423c:	00dc3023          	sd	a3,0(s8)
   14240:	fff7071b          	addiw	a4,a4,-1
   14244:	00ec2423          	sw	a4,8(s8)
   14248:	fff90913          	addi	s2,s2,-1
   1424c:	001a8a9b          	addiw	s5,s5,1
   14250:	14090863          	beqz	s2,143a0 <__svfscanf_r+0x580>
   14254:	fce046e3          	bgtz	a4,14220 <__svfscanf_r+0x400>
   14258:	000c0593          	mv	a1,s8
   1425c:	00048513          	mv	a0,s1
   14260:	6cc050ef          	jal	1992c <__srefill_r>
   14264:	12051e63          	bnez	a0,143a0 <__svfscanf_r+0x580>
   14268:	000c3683          	ld	a3,0(s8)
   1426c:	fb5ff06f          	j	14220 <__svfscanf_r+0x400>
   14270:	008c2703          	lw	a4,8(s8)
   14274:	00400c93          	li	s9,4
   14278:	dae046e3          	bgtz	a4,14024 <__svfscanf_r+0x204>
   1427c:	de1ff06f          	j	1405c <__svfscanf_r+0x23c>
   14280:	008c2703          	lw	a4,8(s8)
   14284:	001aea93          	ori	s5,s5,1
   14288:	0001ba37          	lui	s4,0x1b
   1428c:	1f0a0793          	addi	a5,s4,496 # 1b1f0 <_strtol_r>
   14290:	d81ff06f          	j	14010 <__svfscanf_r+0x1f0>
   14294:	0001ba37          	lui	s4,0x1b
   14298:	3e0a0793          	addi	a5,s4,992 # 1b3e0 <_strtoul_r>
   1429c:	008c2703          	lw	a4,8(s8)
   142a0:	02f13423          	sd	a5,40(sp)
   142a4:	00800793          	li	a5,8
   142a8:	00f12823          	sw	a5,16(sp)
   142ac:	001aea93          	ori	s5,s5,1
   142b0:	00300c93          	li	s9,3
   142b4:	d6e048e3          	bgtz	a4,14024 <__svfscanf_r+0x204>
   142b8:	da5ff06f          	j	1405c <__svfscanf_r+0x23c>
   142bc:	002aea93          	ori	s5,s5,2
   142c0:	cb1ff06f          	j	13f70 <__svfscanf_r+0x150>
   142c4:	008c2703          	lw	a4,8(s8)
   142c8:	200aea93          	ori	s5,s5,512
   142cc:	dc1ff06f          	j	1408c <__svfscanf_r+0x26c>
   142d0:	00191713          	slli	a4,s2,0x1
   142d4:	00391313          	slli	t1,s2,0x3
   142d8:	00670333          	add	t1,a4,t1
   142dc:	fd068693          	addi	a3,a3,-48
   142e0:	00668933          	add	s2,a3,t1
   142e4:	c8dff06f          	j	13f70 <__svfscanf_r+0x150>
   142e8:	010aea93          	ori	s5,s5,16
   142ec:	c85ff06f          	j	13f70 <__svfscanf_r+0x150>
   142f0:	008c2703          	lw	a4,8(s8)
   142f4:	2ae05063          	blez	a4,14594 <__svfscanf_r+0x774>
   142f8:	0001ba37          	lui	s4,0x1b
   142fc:	1f0a0793          	addi	a5,s4,496 # 1b1f0 <_strtol_r>
   14300:	02f13423          	sd	a5,40(sp)
   14304:	00012823          	sw	zero,16(sp)
   14308:	00300c93          	li	s9,3
   1430c:	d19ff06f          	j	14024 <__svfscanf_r+0x204>
   14310:	010afa93          	andi	s5,s5,16
   14314:	fff00913          	li	s2,-1
   14318:	f00a90e3          	bnez	s5,14218 <__svfscanf_r+0x3f8>
   1431c:	000b3a83          	ld	s5,0(s6)
   14320:	008b0b13          	addi	s6,s6,8
   14324:	012a8d33          	add	s10,s5,s2
   14328:	000a8c93          	mv	s9,s5
   1432c:	00c0006f          	j	14338 <__svfscanf_r+0x518>
   14330:	000c3683          	ld	a3,0(s8)
   14334:	0006c703          	lbu	a4,0(a3)
   14338:	2d010793          	addi	a5,sp,720
   1433c:	00e78733          	add	a4,a5,a4
   14340:	da074703          	lbu	a4,-608(a4)
   14344:	04070263          	beqz	a4,14388 <__svfscanf_r+0x568>
   14348:	008c2703          	lw	a4,8(s8)
   1434c:	00168613          	addi	a2,a3,1
   14350:	00cc3023          	sd	a2,0(s8)
   14354:	fff7071b          	addiw	a4,a4,-1
   14358:	00ec2423          	sw	a4,8(s8)
   1435c:	0006c703          	lbu	a4,0(a3)
   14360:	001c8c93          	addi	s9,s9,1
   14364:	feec8fa3          	sb	a4,-1(s9)
   14368:	03ac8063          	beq	s9,s10,14388 <__svfscanf_r+0x568>
   1436c:	008c2703          	lw	a4,8(s8)
   14370:	fce040e3          	bgtz	a4,14330 <__svfscanf_r+0x510>
   14374:	000c0593          	mv	a1,s8
   14378:	00048513          	mv	a0,s1
   1437c:	5b0050ef          	jal	1992c <__srefill_r>
   14380:	fa0508e3          	beqz	a0,14330 <__svfscanf_r+0x510>
   14384:	d39a8ae3          	beq	s5,s9,140b8 <__svfscanf_r+0x298>
   14388:	415c8abb          	subw	s5,s9,s5
   1438c:	bc0a84e3          	beqz	s5,13f54 <__svfscanf_r+0x134>
   14390:	01412783          	lw	a5,20(sp)
   14394:	000c8023          	sb	zero,0(s9)
   14398:	0017879b          	addiw	a5,a5,1
   1439c:	00f12a23          	sw	a5,20(sp)
   143a0:	015b8bbb          	addw	s7,s7,s5
   143a4:	b25ff06f          	j	13ec8 <__svfscanf_r+0xa8>
   143a8:	010af793          	andi	a5,s5,16
   143ac:	06810c93          	addi	s9,sp,104
   143b0:	00800613          	li	a2,8
   143b4:	00000593          	li	a1,0
   143b8:	000c8513          	mv	a0,s9
   143bc:	00078a13          	mv	s4,a5
   143c0:	00f12423          	sw	a5,8(sp)
   143c4:	00000a93          	li	s5,0
   143c8:	68d030ef          	jal	18254 <memset>
   143cc:	0e0a0663          	beqz	s4,144b8 <__svfscanf_r+0x698>
   143d0:	00000a13          	li	s4,0
   143d4:	fff00d13          	li	s10,-1
   143d8:	029030ef          	jal	17c00 <__locale_mb_cur_max>
   143dc:	cd450ee3          	beq	a0,s4,140b8 <__svfscanf_r+0x298>
   143e0:	000c3683          	ld	a3,0(s8)
   143e4:	008c2603          	lw	a2,8(s8)
   143e8:	001a0d9b          	addiw	s11,s4,1
   143ec:	0006ce83          	lbu	t4,0(a3)
   143f0:	fff6061b          	addiw	a2,a2,-1
   143f4:	00168693          	addi	a3,a3,1
   143f8:	2d010793          	addi	a5,sp,720
   143fc:	014788b3          	add	a7,a5,s4
   14400:	00cc2423          	sw	a2,8(s8)
   14404:	00dc3023          	sd	a3,0(s8)
   14408:	000c8713          	mv	a4,s9
   1440c:	000d8693          	mv	a3,s11
   14410:	17010613          	addi	a2,sp,368
   14414:	000a8593          	mv	a1,s5
   14418:	00048513          	mv	a0,s1
   1441c:	ebd88023          	sb	t4,-352(a7)
   14420:	1d1030ef          	jal	17df0 <_mbrtowc_r>
   14424:	c9a50ae3          	beq	a0,s10,140b8 <__svfscanf_r+0x298>
   14428:	04051263          	bnez	a0,1446c <__svfscanf_r+0x64c>
   1442c:	00812783          	lw	a5,8(sp)
   14430:	06079463          	bnez	a5,14498 <__svfscanf_r+0x678>
   14434:	000aa023          	sw	zero,0(s5)
   14438:	01bb8bbb          	addw	s7,s7,s11
   1443c:	fff90913          	addi	s2,s2,-1
   14440:	004a8a93          	addi	s5,s5,4
   14444:	008c2683          	lw	a3,8(s8)
   14448:	00000a13          	li	s4,0
   1444c:	02d05a63          	blez	a3,14480 <__svfscanf_r+0x660>
   14450:	f80914e3          	bnez	s2,143d8 <__svfscanf_r+0x5b8>
   14454:	00812783          	lw	a5,8(sp)
   14458:	0017ba93          	seqz	s5,a5
   1445c:	01412783          	lw	a5,20(sp)
   14460:	015787bb          	addw	a5,a5,s5
   14464:	00f12a23          	sw	a5,20(sp)
   14468:	a61ff06f          	j	13ec8 <__svfscanf_r+0xa8>
   1446c:	ffe00793          	li	a5,-2
   14470:	02f51a63          	bne	a0,a5,144a4 <__svfscanf_r+0x684>
   14474:	008c2703          	lw	a4,8(s8)
   14478:	000d8a13          	mv	s4,s11
   1447c:	f4e04ee3          	bgtz	a4,143d8 <__svfscanf_r+0x5b8>
   14480:	000c0593          	mv	a1,s8
   14484:	00048513          	mv	a0,s1
   14488:	4a4050ef          	jal	1992c <__srefill_r>
   1448c:	fc0502e3          	beqz	a0,14450 <__svfscanf_r+0x630>
   14490:	fc0a02e3          	beqz	s4,14454 <__svfscanf_r+0x634>
   14494:	c25ff06f          	j	140b8 <__svfscanf_r+0x298>
   14498:	01bb8bbb          	addw	s7,s7,s11
   1449c:	fff90913          	addi	s2,s2,-1
   144a0:	fa5ff06f          	j	14444 <__svfscanf_r+0x624>
   144a4:	00812783          	lw	a5,8(sp)
   144a8:	01bb8bbb          	addw	s7,s7,s11
   144ac:	fff90913          	addi	s2,s2,-1
   144b0:	f80788e3          	beqz	a5,14440 <__svfscanf_r+0x620>
   144b4:	f91ff06f          	j	14444 <__svfscanf_r+0x624>
   144b8:	000b3a83          	ld	s5,0(s6)
   144bc:	008b0b13          	addi	s6,s6,8
   144c0:	f11ff06f          	j	143d0 <__svfscanf_r+0x5b0>
   144c4:	000c0593          	mv	a1,s8
   144c8:	00048513          	mv	a0,s1
   144cc:	460050ef          	jal	1992c <__srefill_r>
   144d0:	ca0506e3          	beqz	a0,1417c <__svfscanf_r+0x35c>
   144d4:	be5ff06f          	j	140b8 <__svfscanf_r+0x298>
   144d8:	be0a80e3          	beqz	s5,140b8 <__svfscanf_r+0x298>
   144dc:	017a8bbb          	addw	s7,s5,s7
   144e0:	9e9ff06f          	j	13ec8 <__svfscanf_r+0xa8>
   144e4:	a60a88e3          	beqz	s5,13f54 <__svfscanf_r+0x134>
   144e8:	015b8bbb          	addw	s7,s7,s5
   144ec:	9ddff06f          	j	13ec8 <__svfscanf_r+0xa8>
   144f0:	000b3583          	ld	a1,0(s6)
   144f4:	000c0713          	mv	a4,s8
   144f8:	00090693          	mv	a3,s2
   144fc:	00100613          	li	a2,1
   14500:	00048513          	mv	a0,s1
   14504:	191020ef          	jal	16e94 <_fread_r>
   14508:	008b0b13          	addi	s6,s6,8
   1450c:	ba0506e3          	beqz	a0,140b8 <__svfscanf_r+0x298>
   14510:	01412783          	lw	a5,20(sp)
   14514:	01750bbb          	addw	s7,a0,s7
   14518:	0017879b          	addiw	a5,a5,1
   1451c:	00f12a23          	sw	a5,20(sp)
   14520:	9a9ff06f          	j	13ec8 <__svfscanf_r+0xa8>
   14524:	000c0593          	mv	a1,s8
   14528:	00048513          	mv	a0,s1
   1452c:	400050ef          	jal	1992c <__srefill_r>
   14530:	a60502e3          	beqz	a0,13f94 <__svfscanf_r+0x174>
   14534:	b85ff06f          	j	140b8 <__svfscanf_r+0x298>
   14538:	008c2703          	lw	a4,8(s8)
   1453c:	00daeab3          	or	s5,s5,a3
   14540:	d49ff06f          	j	14288 <__svfscanf_r+0x468>
   14544:	001afa93          	andi	s5,s5,1
   14548:	000b3703          	ld	a4,0(s6)
   1454c:	020a8463          	beqz	s5,14574 <__svfscanf_r+0x754>
   14550:	008b0b13          	addi	s6,s6,8
   14554:	01773023          	sd	s7,0(a4)
   14558:	971ff06f          	j	13ec8 <__svfscanf_r+0xa8>
   1455c:	000c0593          	mv	a1,s8
   14560:	00048513          	mv	a0,s1
   14564:	3c8050ef          	jal	1992c <__srefill_r>
   14568:	b40518e3          	bnez	a0,140b8 <__svfscanf_r+0x298>
   1456c:	8281b503          	ld	a0,-2008(gp) # 249f8 <__ctype_ptr__>
   14570:	be9ff06f          	j	14158 <__svfscanf_r+0x338>
   14574:	008b0b13          	addi	s6,s6,8
   14578:	01772023          	sw	s7,0(a4)
   1457c:	94dff06f          	j	13ec8 <__svfscanf_r+0xa8>
   14580:	000c0593          	mv	a1,s8
   14584:	00048513          	mv	a0,s1
   14588:	3a4050ef          	jal	1992c <__srefill_r>
   1458c:	c6050ce3          	beqz	a0,14204 <__svfscanf_r+0x3e4>
   14590:	b29ff06f          	j	140b8 <__svfscanf_r+0x298>
   14594:	000c0593          	mv	a1,s8
   14598:	00048513          	mv	a0,s1
   1459c:	390050ef          	jal	1992c <__srefill_r>
   145a0:	b0051ce3          	bnez	a0,140b8 <__svfscanf_r+0x298>
   145a4:	8281b503          	ld	a0,-2008(gp) # 249f8 <__ctype_ptr__>
   145a8:	d51ff06f          	j	142f8 <__svfscanf_r+0x4d8>
   145ac:	000c0593          	mv	a1,s8
   145b0:	00048513          	mv	a0,s1
   145b4:	378050ef          	jal	1992c <__srefill_r>
   145b8:	b00510e3          	bnez	a0,140b8 <__svfscanf_r+0x298>
   145bc:	8281b503          	ld	a0,-2008(gp) # 249f8 <__ctype_ptr__>
   145c0:	b21ff06f          	j	140e0 <__svfscanf_r+0x2c0>
   145c4:	00300593          	li	a1,3
   145c8:	3ebc8e63          	beq	s9,a1,149c4 <__svfscanf_r+0xba4>
   145cc:	00400613          	li	a2,4
   145d0:	38cc9063          	bne	s9,a2,14950 <__svfscanf_r+0xb30>
   145d4:	00048513          	mv	a0,s1
   145d8:	644030ef          	jal	17c1c <_localeconv_r>
   145dc:	00053783          	ld	a5,0(a0)
   145e0:	fff90713          	addi	a4,s2,-1
   145e4:	04012623          	sw	zero,76(sp)
   145e8:	04f13023          	sd	a5,64(sp)
   145ec:	15c00693          	li	a3,348
   145f0:	00e6f863          	bleu	a4,a3,14600 <__svfscanf_r+0x7e0>
   145f4:	ea39079b          	addiw	a5,s2,-349
   145f8:	04f12623          	sw	a5,76(sp)
   145fc:	15d00913          	li	s2,349
   14600:	17010793          	addi	a5,sp,368
   14604:	00021637          	lui	a2,0x21
   14608:	780aea13          	ori	s4,s5,1920
   1460c:	02f13823          	sd	a5,48(sp)
   14610:	00000c93          	li	s9,0
   14614:	00000d13          	li	s10,0
   14618:	04013c23          	sd	zero,88(sp)
   1461c:	04013823          	sd	zero,80(sp)
   14620:	00000a93          	li	s5,0
   14624:	02013c23          	sd	zero,56(sp)
   14628:	00078d93          	mv	s11,a5
   1462c:	04e00e93          	li	t4,78
   14630:	6c460613          	addi	a2,a2,1732 # 216c4 <zeroes.4194+0x1f4>
   14634:	000c3583          	ld	a1,0(s8)
   14638:	0005c503          	lbu	a0,0(a1)
   1463c:	fd55071b          	addiw	a4,a0,-43
   14640:	0ff77f93          	andi	t6,a4,255
   14644:	2dfee463          	bltu	t4,t6,1490c <__svfscanf_r+0xaec>
   14648:	0ff77713          	andi	a4,a4,255
   1464c:	00271713          	slli	a4,a4,0x2
   14650:	00c70733          	add	a4,a4,a2
   14654:	00072703          	lw	a4,0(a4)
   14658:	00070067          	jr	a4
   1465c:	019d073b          	addw	a4,s10,s9
   14660:	02071a63          	bnez	a4,14694 <__svfscanf_r+0x874>
   14664:	e7fa7a13          	andi	s4,s4,-385
   14668:	00ad8023          	sb	a0,0(s11)
   1466c:	001d8d93          	addi	s11,s11,1
   14670:	008c2703          	lw	a4,8(s8)
   14674:	fff90913          	addi	s2,s2,-1
   14678:	001b8b9b          	addiw	s7,s7,1
   1467c:	fff7071b          	addiw	a4,a4,-1
   14680:	00ec2423          	sw	a4,8(s8)
   14684:	04e05c63          	blez	a4,146dc <__svfscanf_r+0x8bc>
   14688:	00158593          	addi	a1,a1,1
   1468c:	00bc3023          	sd	a1,0(s8)
   14690:	fa0912e3          	bnez	s2,14634 <__svfscanf_r+0x814>
   14694:	0e0a8263          	beqz	s5,14778 <__svfscanf_r+0x958>
   14698:	effa7a13          	andi	s4,s4,-257
   1469c:	0dc0006f          	j	14778 <__svfscanf_r+0x958>
   146a0:	100a7713          	andi	a4,s4,256
   146a4:	fa070ce3          	beqz	a4,1465c <__svfscanf_r+0x83c>
   146a8:	04c12783          	lw	a5,76(sp)
   146ac:	f7fa7a13          	andi	s4,s4,-129
   146b0:	001a8a93          	addi	s5,s5,1
   146b4:	fa078ee3          	beqz	a5,14670 <__svfscanf_r+0x850>
   146b8:	008c2703          	lw	a4,8(s8)
   146bc:	fff7879b          	addiw	a5,a5,-1
   146c0:	00190913          	addi	s2,s2,1
   146c4:	fff7071b          	addiw	a4,a4,-1
   146c8:	04f12623          	sw	a5,76(sp)
   146cc:	00ec2423          	sw	a4,8(s8)
   146d0:	fff90913          	addi	s2,s2,-1
   146d4:	001b8b9b          	addiw	s7,s7,1
   146d8:	fae048e3          	bgtz	a4,14688 <__svfscanf_r+0x868>
   146dc:	000c0593          	mv	a1,s8
   146e0:	00048513          	mv	a0,s1
   146e4:	02c13023          	sd	a2,32(sp)
   146e8:	01d13423          	sd	t4,8(sp)
   146ec:	240050ef          	jal	1992c <__srefill_r>
   146f0:	00813e83          	ld	t4,8(sp)
   146f4:	02013603          	ld	a2,32(sp)
   146f8:	f8051ee3          	bnez	a0,14694 <__svfscanf_r+0x874>
   146fc:	f2091ce3          	bnez	s2,14634 <__svfscanf_r+0x814>
   14700:	f95ff06f          	j	14694 <__svfscanf_r+0x874>
   14704:	00700793          	li	a5,7
   14708:	f8fc96e3          	bne	s9,a5,14694 <__svfscanf_r+0x874>
   1470c:	00800c93          	li	s9,8
   14710:	f59ff06f          	j	14668 <__svfscanf_r+0x848>
   14714:	080a7713          	andi	a4,s4,128
   14718:	f6070ee3          	beqz	a4,14694 <__svfscanf_r+0x874>
   1471c:	f7fa7a13          	andi	s4,s4,-129
   14720:	f49ff06f          	j	14668 <__svfscanf_r+0x848>
   14724:	00600793          	li	a5,6
   14728:	f6fc96e3          	bne	s9,a5,14694 <__svfscanf_r+0x874>
   1472c:	00700c93          	li	s9,7
   14730:	f39ff06f          	j	14668 <__svfscanf_r+0x848>
   14734:	1e0d1c63          	bnez	s10,1492c <__svfscanf_r+0xb0c>
   14738:	000a9863          	bnez	s5,14748 <__svfscanf_r+0x928>
   1473c:	700a7713          	andi	a4,s4,1792
   14740:	70000793          	li	a5,1792
   14744:	56f70863          	beq	a4,a5,14cb4 <__svfscanf_r+0xe94>
   14748:	00100713          	li	a4,1
   1474c:	00ec8663          	beq	s9,a4,14758 <__svfscanf_r+0x938>
   14750:	00400713          	li	a4,4
   14754:	f4ec90e3          	bne	s9,a4,14694 <__svfscanf_r+0x874>
   14758:	001c8e1b          	addiw	t3,s9,1
   1475c:	0ffe7c93          	andi	s9,t3,255
   14760:	f09ff06f          	j	14668 <__svfscanf_r+0x848>
   14764:	1c0c9c63          	bnez	s9,1493c <__svfscanf_r+0xb1c>
   14768:	f20a98e3          	bnez	s5,14698 <__svfscanf_r+0x878>
   1476c:	700a7713          	andi	a4,s4,1792
   14770:	70000793          	li	a5,1792
   14774:	54f70663          	beq	a4,a5,14cc0 <__svfscanf_r+0xea0>
   14778:	fffd0f1b          	addiw	t5,s10,-1
   1477c:	00100713          	li	a4,1
   14780:	6fe77c63          	bleu	t5,a4,14e78 <__svfscanf_r+0x1058>
   14784:	fffc871b          	addiw	a4,s9,-1
   14788:	00600613          	li	a2,6
   1478c:	06e66063          	bltu	a2,a4,147ec <__svfscanf_r+0x9cc>
   14790:	00200793          	li	a5,2
   14794:	7397fa63          	bleu	s9,a5,14ec8 <__svfscanf_r+0x10a8>
   14798:	00300613          	li	a2,3
   1479c:	0ff77713          	andi	a4,a4,255
   147a0:	000d8d13          	mv	s10,s11
   147a4:	00078913          	mv	s2,a5
   147a8:	04cc8263          	beq	s9,a2,147ec <__svfscanf_r+0x9cc>
   147ac:	fffd0d13          	addi	s10,s10,-1
   147b0:	000d4583          	lbu	a1,0(s10)
   147b4:	000c0613          	mv	a2,s8
   147b8:	00048513          	mv	a0,s1
   147bc:	00e13423          	sd	a4,8(sp)
   147c0:	30d080ef          	jal	1d2cc <_ungetc_r>
   147c4:	00813703          	ld	a4,8(sp)
   147c8:	fff7071b          	addiw	a4,a4,-1
   147cc:	0ff77713          	andi	a4,a4,255
   147d0:	fd271ee3          	bne	a4,s2,147ac <__svfscanf_r+0x98c>
   147d4:	ffcc871b          	addiw	a4,s9,-4
   147d8:	0ff77713          	andi	a4,a4,255
   147dc:	fff74613          	not	a2,a4
   147e0:	fffb881b          	addiw	a6,s7,-1
   147e4:	00cd8db3          	add	s11,s11,a2
   147e8:	40e80bbb          	subw	s7,a6,a4
   147ec:	100a7713          	andi	a4,s4,256
   147f0:	04070e63          	beqz	a4,1484c <__svfscanf_r+0xa2c>
   147f4:	400a7713          	andi	a4,s4,1024
   147f8:	6a071463          	bnez	a4,14ea0 <__svfscanf_r+0x1080>
   147fc:	fffdc583          	lbu	a1,-1(s11)
   14800:	06500613          	li	a2,101
   14804:	fffd8d13          	addi	s10,s11,-1
   14808:	fffb871b          	addiw	a4,s7,-1
   1480c:	02c58263          	beq	a1,a2,14830 <__svfscanf_r+0xa10>
   14810:	04500613          	li	a2,69
   14814:	00c58e63          	beq	a1,a2,14830 <__svfscanf_r+0xa10>
   14818:	000c0613          	mv	a2,s8
   1481c:	00048513          	mv	a0,s1
   14820:	2ad080ef          	jal	1d2cc <_ungetc_r>
   14824:	ffedc583          	lbu	a1,-2(s11)
   14828:	ffed8d13          	addi	s10,s11,-2
   1482c:	ffeb871b          	addiw	a4,s7,-2
   14830:	000c0613          	mv	a2,s8
   14834:	00048513          	mv	a0,s1
   14838:	00e13423          	sd	a4,8(sp)
   1483c:	291080ef          	jal	1d2cc <_ungetc_r>
   14840:	00813703          	ld	a4,8(sp)
   14844:	000d0d93          	mv	s11,s10
   14848:	00070b93          	mv	s7,a4
   1484c:	010a7713          	andi	a4,s4,16
   14850:	e6071c63          	bnez	a4,13ec8 <__svfscanf_r+0xa8>
   14854:	000d8023          	sb	zero,0(s11)
   14858:	600a7713          	andi	a4,s4,1536
   1485c:	40000613          	li	a2,1024
   14860:	48c70e63          	beq	a4,a2,14cfc <__svfscanf_r+0xedc>
   14864:	05013783          	ld	a5,80(sp)
   14868:	4c079263          	bnez	a5,14d2c <__svfscanf_r+0xf0c>
   1486c:	03013583          	ld	a1,48(sp)
   14870:	00000613          	li	a2,0
   14874:	00048513          	mv	a0,s1
   14878:	674050ef          	jal	19eec <_strtod_r>
   1487c:	001a7713          	andi	a4,s4,1
   14880:	22a50453          	fmv.d	fs0,fa0
   14884:	00071663          	bnez	a4,14890 <__svfscanf_r+0xa70>
   14888:	002a7893          	andi	a7,s4,2
   1488c:	4c088e63          	beqz	a7,14d68 <__svfscanf_r+0xf48>
   14890:	000b3703          	ld	a4,0(s6)
   14894:	008b0b13          	addi	s6,s6,8
   14898:	00873027          	fsd	fs0,0(a4)
   1489c:	01412783          	lw	a5,20(sp)
   148a0:	0017879b          	addiw	a5,a5,1
   148a4:	00f12a23          	sw	a5,20(sp)
   148a8:	e20ff06f          	j	13ec8 <__svfscanf_r+0xa8>
   148ac:	00200793          	li	a5,2
   148b0:	defc92e3          	bne	s9,a5,14694 <__svfscanf_r+0x874>
   148b4:	00300c93          	li	s9,3
   148b8:	db1ff06f          	j	14668 <__svfscanf_r+0x848>
   148bc:	500a7713          	andi	a4,s4,1280
   148c0:	40000793          	li	a5,1024
   148c4:	00f70863          	beq	a4,a5,148d4 <__svfscanf_r+0xab4>
   148c8:	00fa7733          	and	a4,s4,a5
   148cc:	dc0704e3          	beqz	a4,14694 <__svfscanf_r+0x874>
   148d0:	ea0a84e3          	beqz	s5,14778 <__svfscanf_r+0x958>
   148d4:	200a7713          	andi	a4,s4,512
   148d8:	00071a63          	bnez	a4,148ec <__svfscanf_r+0xacc>
   148dc:	03813783          	ld	a5,56(sp)
   148e0:	05b13c23          	sd	s11,88(sp)
   148e4:	40fa87b3          	sub	a5,s5,a5
   148e8:	04f13823          	sd	a5,80(sp)
   148ec:	87fa7a93          	andi	s5,s4,-1921
   148f0:	180aea13          	ori	s4,s5,384
   148f4:	00000a93          	li	s5,0
   148f8:	d71ff06f          	j	14668 <__svfscanf_r+0x848>
   148fc:	00100713          	li	a4,1
   14900:	d8ed1ae3          	bne	s10,a4,14694 <__svfscanf_r+0x874>
   14904:	00200d13          	li	s10,2
   14908:	d61ff06f          	j	14668 <__svfscanf_r+0x848>
   1490c:	04013783          	ld	a5,64(sp)
   14910:	0007c703          	lbu	a4,0(a5)
   14914:	d8a710e3          	bne	a4,a0,14694 <__svfscanf_r+0x874>
   14918:	200a7713          	andi	a4,s4,512
   1491c:	d6070ce3          	beqz	a4,14694 <__svfscanf_r+0x874>
   14920:	d7fa7a13          	andi	s4,s4,-641
   14924:	03513c23          	sd	s5,56(sp)
   14928:	d41ff06f          	j	14668 <__svfscanf_r+0x848>
   1492c:	00200793          	li	a5,2
   14930:	e0fd1ce3          	bne	s10,a5,14748 <__svfscanf_r+0x928>
   14934:	00300d13          	li	s10,3
   14938:	d31ff06f          	j	14668 <__svfscanf_r+0x848>
   1493c:	ffdc871b          	addiw	a4,s9,-3
   14940:	0fd77713          	andi	a4,a4,253
   14944:	e0070ae3          	beqz	a4,14758 <__svfscanf_r+0x938>
   14948:	e20a88e3          	beqz	s5,14778 <__svfscanf_r+0x958>
   1494c:	d4dff06f          	j	14698 <__svfscanf_r+0x878>
   14950:	00091463          	bnez	s2,14958 <__svfscanf_r+0xb38>
   14954:	fff00913          	li	s2,-1
   14958:	001af613          	andi	a2,s5,1
   1495c:	2c061863          	bnez	a2,14c2c <__svfscanf_r+0xe0c>
   14960:	010afa93          	andi	s5,s5,16
   14964:	1e0a8e63          	beqz	s5,14b60 <__svfscanf_r+0xd40>
   14968:	00000a93          	li	s5,0
   1496c:	0100006f          	j	1497c <__svfscanf_r+0xb5c>
   14970:	0006c703          	lbu	a4,0(a3)
   14974:	00e50733          	add	a4,a0,a4
   14978:	00174703          	lbu	a4,1(a4)
   1497c:	00877713          	andi	a4,a4,8
   14980:	a20710e3          	bnez	a4,143a0 <__svfscanf_r+0x580>
   14984:	008c2703          	lw	a4,8(s8)
   14988:	00168693          	addi	a3,a3,1
   1498c:	00dc3023          	sd	a3,0(s8)
   14990:	fff7071b          	addiw	a4,a4,-1
   14994:	00ec2423          	sw	a4,8(s8)
   14998:	fff90913          	addi	s2,s2,-1
   1499c:	001a8a9b          	addiw	s5,s5,1
   149a0:	a00900e3          	beqz	s2,143a0 <__svfscanf_r+0x580>
   149a4:	fce046e3          	bgtz	a4,14970 <__svfscanf_r+0xb50>
   149a8:	000c0593          	mv	a1,s8
   149ac:	00048513          	mv	a0,s1
   149b0:	77d040ef          	jal	1992c <__srefill_r>
   149b4:	9e0516e3          	bnez	a0,143a0 <__svfscanf_r+0x580>
   149b8:	8281b503          	ld	a0,-2008(gp) # 249f8 <__ctype_ptr__>
   149bc:	000c3683          	ld	a3,0(s8)
   149c0:	fb1ff06f          	j	14970 <__svfscanf_r+0xb50>
   149c4:	fff90713          	addi	a4,s2,-1
   149c8:	15c00593          	li	a1,348
   149cc:	00000e13          	li	t3,0
   149d0:	00e5f663          	bleu	a4,a1,149dc <__svfscanf_r+0xbbc>
   149d4:	ea390e1b          	addiw	t3,s2,-349
   149d8:	15d00913          	li	s2,349
   149dc:	17010793          	addi	a5,sp,368
   149e0:	00001737          	lui	a4,0x1
   149e4:	02f13823          	sd	a5,48(sp)
   149e8:	d807071b          	addiw	a4,a4,-640
   149ec:	00078d13          	mv	s10,a5
   149f0:	00022db7          	lui	s11,0x22
   149f4:	000017b7          	lui	a5,0x1
   149f8:	00eaeab3          	or	s5,s5,a4
   149fc:	00000a13          	li	s4,0
   14a00:	938d8d93          	addi	s11,s11,-1736 # 21938 <basefix.4147>
   14a04:	80078c9b          	addiw	s9,a5,-2048
   14a08:	fd56071b          	addiw	a4,a2,-43
   14a0c:	0ff77513          	andi	a0,a4,255
   14a10:	04d00593          	li	a1,77
   14a14:	0aa5e063          	bltu	a1,a0,14ab4 <__svfscanf_r+0xc94>
   14a18:	01813783          	ld	a5,24(sp)
   14a1c:	0ff77713          	andi	a4,a4,255
   14a20:	00271713          	slli	a4,a4,0x2
   14a24:	00f70733          	add	a4,a4,a5
   14a28:	00072703          	lw	a4,0(a4) # 1000 <_ftext-0xf000>
   14a2c:	00070067          	jr	a4
   14a30:	600af713          	andi	a4,s5,1536
   14a34:	20000593          	li	a1,512
   14a38:	06b71e63          	bne	a4,a1,14ab4 <__svfscanf_r+0xc94>
   14a3c:	dffafa93          	andi	s5,s5,-513
   14a40:	01000793          	li	a5,16
   14a44:	500aea93          	ori	s5,s5,1280
   14a48:	00f12823          	sw	a5,16(sp)
   14a4c:	00cd0023          	sb	a2,0(s10)
   14a50:	001d0d13          	addi	s10,s10,1
   14a54:	008c2703          	lw	a4,8(s8)
   14a58:	fff7071b          	addiw	a4,a4,-1
   14a5c:	00ec2423          	sw	a4,8(s8)
   14a60:	0ee05263          	blez	a4,14b44 <__svfscanf_r+0xd24>
   14a64:	00168693          	addi	a3,a3,1
   14a68:	00dc3023          	sd	a3,0(s8)
   14a6c:	fff90913          	addi	s2,s2,-1
   14a70:	04090263          	beqz	s2,14ab4 <__svfscanf_r+0xc94>
   14a74:	000c3683          	ld	a3,0(s8)
   14a78:	0006c603          	lbu	a2,0(a3)
   14a7c:	f8dff06f          	j	14a08 <__svfscanf_r+0xbe8>
   14a80:	01012783          	lw	a5,16(sp)
   14a84:	00a00713          	li	a4,10
   14a88:	02f75663          	ble	a5,a4,14ab4 <__svfscanf_r+0xc94>
   14a8c:	04812783          	lw	a5,72(sp)
   14a90:	00fafab3          	and	s5,s5,a5
   14a94:	fb9ff06f          	j	14a4c <__svfscanf_r+0xc2c>
   14a98:	01012703          	lw	a4,16(sp)
   14a9c:	00171713          	slli	a4,a4,0x1
   14aa0:	00ed8733          	add	a4,s11,a4
   14aa4:	00071783          	lh	a5,0(a4)
   14aa8:	00800713          	li	a4,8
   14aac:	00f12823          	sw	a5,16(sp)
   14ab0:	fcf74ee3          	blt	a4,a5,14a8c <__svfscanf_r+0xc6c>
   14ab4:	100af713          	andi	a4,s5,256
   14ab8:	00070a63          	beqz	a4,14acc <__svfscanf_r+0xcac>
   14abc:	03013783          	ld	a5,48(sp)
   14ac0:	21a7e663          	bltu	a5,s10,14ccc <__svfscanf_r+0xeac>
   14ac4:	03013783          	ld	a5,48(sp)
   14ac8:	c8fd0663          	beq	s10,a5,13f54 <__svfscanf_r+0x134>
   14acc:	010af713          	andi	a4,s5,16
   14ad0:	10070e63          	beqz	a4,14bec <__svfscanf_r+0xdcc>
   14ad4:	03013783          	ld	a5,48(sp)
   14ad8:	017a083b          	addw	a6,s4,s7
   14adc:	40fd0cb3          	sub	s9,s10,a5
   14ae0:	010c8bbb          	addw	s7,s9,a6
   14ae4:	be4ff06f          	j	13ec8 <__svfscanf_r+0xa8>
   14ae8:	01012703          	lw	a4,16(sp)
   14aec:	00171713          	slli	a4,a4,0x1
   14af0:	00ed8733          	add	a4,s11,a4
   14af4:	00071783          	lh	a5,0(a4)
   14af8:	00f12823          	sw	a5,16(sp)
   14afc:	04812783          	lw	a5,72(sp)
   14b00:	00fafab3          	and	s5,s5,a5
   14b04:	f49ff06f          	j	14a4c <__svfscanf_r+0xc2c>
   14b08:	019af733          	and	a4,s5,s9
   14b0c:	f40700e3          	beqz	a4,14a4c <__svfscanf_r+0xc2c>
   14b10:	01012783          	lw	a5,16(sp)
   14b14:	00079863          	bnez	a5,14b24 <__svfscanf_r+0xd04>
   14b18:	00800793          	li	a5,8
   14b1c:	200aea93          	ori	s5,s5,512
   14b20:	00f12823          	sw	a5,16(sp)
   14b24:	400af713          	andi	a4,s5,1024
   14b28:	16070a63          	beqz	a4,14c9c <__svfscanf_r+0xe7c>
   14b2c:	a7fafa93          	andi	s5,s5,-1409
   14b30:	f1dff06f          	j	14a4c <__svfscanf_r+0xc2c>
   14b34:	080af713          	andi	a4,s5,128
   14b38:	f6070ee3          	beqz	a4,14ab4 <__svfscanf_r+0xc94>
   14b3c:	f7fafa93          	andi	s5,s5,-129
   14b40:	f0dff06f          	j	14a4c <__svfscanf_r+0xc2c>
   14b44:	000c0593          	mv	a1,s8
   14b48:	00048513          	mv	a0,s1
   14b4c:	01c13423          	sd	t3,8(sp)
   14b50:	5dd040ef          	jal	1992c <__srefill_r>
   14b54:	00813e03          	ld	t3,8(sp)
   14b58:	f0050ae3          	beqz	a0,14a6c <__svfscanf_r+0xc4c>
   14b5c:	f59ff06f          	j	14ab4 <__svfscanf_r+0xc94>
   14b60:	000b3c83          	ld	s9,0(s6)
   14b64:	008b0b13          	addi	s6,s6,8
   14b68:	012c8d33          	add	s10,s9,s2
   14b6c:	000c8a93          	mv	s5,s9
   14b70:	0180006f          	j	14b88 <__svfscanf_r+0xd68>
   14b74:	000c3683          	ld	a3,0(s8)
   14b78:	8281b703          	ld	a4,-2008(gp) # 249f8 <__ctype_ptr__>
   14b7c:	0006c603          	lbu	a2,0(a3)
   14b80:	00c70733          	add	a4,a4,a2
   14b84:	00174703          	lbu	a4,1(a4)
   14b88:	00877713          	andi	a4,a4,8
   14b8c:	04071063          	bnez	a4,14bcc <__svfscanf_r+0xdac>
   14b90:	008c2703          	lw	a4,8(s8)
   14b94:	00168613          	addi	a2,a3,1
   14b98:	00cc3023          	sd	a2,0(s8)
   14b9c:	fff7071b          	addiw	a4,a4,-1
   14ba0:	00ec2423          	sw	a4,8(s8)
   14ba4:	0006c703          	lbu	a4,0(a3)
   14ba8:	001a8a93          	addi	s5,s5,1
   14bac:	feea8fa3          	sb	a4,-1(s5)
   14bb0:	035d0063          	beq	s10,s5,14bd0 <__svfscanf_r+0xdb0>
   14bb4:	008c2703          	lw	a4,8(s8)
   14bb8:	fae04ee3          	bgtz	a4,14b74 <__svfscanf_r+0xd54>
   14bbc:	000c0593          	mv	a1,s8
   14bc0:	00048513          	mv	a0,s1
   14bc4:	569040ef          	jal	1992c <__srefill_r>
   14bc8:	fa0506e3          	beqz	a0,14b74 <__svfscanf_r+0xd54>
   14bcc:	000a8d13          	mv	s10,s5
   14bd0:	01412783          	lw	a5,20(sp)
   14bd4:	419d0cb3          	sub	s9,s10,s9
   14bd8:	000d0023          	sb	zero,0(s10)
   14bdc:	0017879b          	addiw	a5,a5,1
   14be0:	017c8bbb          	addw	s7,s9,s7
   14be4:	00f12a23          	sw	a5,20(sp)
   14be8:	ae0ff06f          	j	13ec8 <__svfscanf_r+0xa8>
   14bec:	01012683          	lw	a3,16(sp)
   14bf0:	03013583          	ld	a1,48(sp)
   14bf4:	02813783          	ld	a5,40(sp)
   14bf8:	00000613          	li	a2,0
   14bfc:	00048513          	mv	a0,s1
   14c00:	000d0023          	sb	zero,0(s10)
   14c04:	000780e7          	jalr	a5
   14c08:	020af713          	andi	a4,s5,32
   14c0c:	0c070c63          	beqz	a4,14ce4 <__svfscanf_r+0xec4>
   14c10:	000b3703          	ld	a4,0(s6)
   14c14:	008b0b13          	addi	s6,s6,8
   14c18:	00a73023          	sd	a0,0(a4)
   14c1c:	01412783          	lw	a5,20(sp)
   14c20:	0017879b          	addiw	a5,a5,1
   14c24:	00f12a23          	sw	a5,20(sp)
   14c28:	eadff06f          	j	14ad4 <__svfscanf_r+0xcb4>
   14c2c:	010af793          	andi	a5,s5,16
   14c30:	06810c93          	addi	s9,sp,104
   14c34:	00800613          	li	a2,8
   14c38:	00000593          	li	a1,0
   14c3c:	000c8513          	mv	a0,s9
   14c40:	00078a13          	mv	s4,a5
   14c44:	00f12423          	sw	a5,8(sp)
   14c48:	06410a93          	addi	s5,sp,100
   14c4c:	608030ef          	jal	18254 <memset>
   14c50:	000a1663          	bnez	s4,14c5c <__svfscanf_r+0xe3c>
   14c54:	000b3a83          	ld	s5,0(s6)
   14c58:	008b0b13          	addi	s6,s6,8
   14c5c:	00000a13          	li	s4,0
   14c60:	000c3603          	ld	a2,0(s8)
   14c64:	8281b683          	ld	a3,-2008(gp) # 249f8 <__ctype_ptr__>
   14c68:	00064603          	lbu	a2,0(a2)
   14c6c:	00c686b3          	add	a3,a3,a2
   14c70:	0016c683          	lbu	a3,1(a3)
   14c74:	0086f693          	andi	a3,a3,8
   14c78:	00069463          	bnez	a3,14c80 <__svfscanf_r+0xe60>
   14c7c:	10091663          	bnez	s2,14d88 <__svfscanf_r+0xf68>
   14c80:	00812783          	lw	a5,8(sp)
   14c84:	a4079263          	bnez	a5,13ec8 <__svfscanf_r+0xa8>
   14c88:	01412783          	lw	a5,20(sp)
   14c8c:	000aa023          	sw	zero,0(s5)
   14c90:	0017879b          	addiw	a5,a5,1
   14c94:	00f12a23          	sw	a5,20(sp)
   14c98:	a30ff06f          	j	13ec8 <__svfscanf_r+0xa8>
   14c9c:	c7fafa93          	andi	s5,s5,-897
   14ca0:	000e0663          	beqz	t3,14cac <__svfscanf_r+0xe8c>
   14ca4:	fffe0e1b          	addiw	t3,t3,-1
   14ca8:	00190913          	addi	s2,s2,1
   14cac:	001a0a1b          	addiw	s4,s4,1
   14cb0:	da5ff06f          	j	14a54 <__svfscanf_r+0xc34>
   14cb4:	87fa7a13          	andi	s4,s4,-1921
   14cb8:	00100d13          	li	s10,1
   14cbc:	9adff06f          	j	14668 <__svfscanf_r+0x848>
   14cc0:	87fa7a13          	andi	s4,s4,-1921
   14cc4:	00100c93          	li	s9,1
   14cc8:	9a1ff06f          	j	14668 <__svfscanf_r+0x848>
   14ccc:	fffd4583          	lbu	a1,-1(s10)
   14cd0:	000c0613          	mv	a2,s8
   14cd4:	00048513          	mv	a0,s1
   14cd8:	fffd0d13          	addi	s10,s10,-1
   14cdc:	5f0080ef          	jal	1d2cc <_ungetc_r>
   14ce0:	de5ff06f          	j	14ac4 <__svfscanf_r+0xca4>
   14ce4:	004af713          	andi	a4,s5,4
   14ce8:	06070463          	beqz	a4,14d50 <__svfscanf_r+0xf30>
   14cec:	000b3703          	ld	a4,0(s6)
   14cf0:	008b0b13          	addi	s6,s6,8
   14cf4:	00a71023          	sh	a0,0(a4)
   14cf8:	f25ff06f          	j	14c1c <__svfscanf_r+0xdfc>
   14cfc:	03813783          	ld	a5,56(sp)
   14d00:	40fa8ab3          	sub	s5,s5,a5
   14d04:	41500633          	neg	a2,s5
   14d08:	b60a82e3          	beqz	s5,1486c <__svfscanf_r+0xa4c>
   14d0c:	2b910713          	addi	a4,sp,697
   14d10:	00ede463          	bltu	s11,a4,14d18 <__svfscanf_r+0xef8>
   14d14:	2b810d93          	addi	s11,sp,696
   14d18:	000225b7          	lui	a1,0x22
   14d1c:	2c858593          	addi	a1,a1,712 # 222c8 <zeroes.4123+0x80>
   14d20:	000d8513          	mv	a0,s11
   14d24:	7fd040ef          	jal	19d20 <sprintf>
   14d28:	b45ff06f          	j	1486c <__svfscanf_r+0xa4c>
   14d2c:	05813d83          	ld	s11,88(sp)
   14d30:	00000613          	li	a2,0
   14d34:	00a00693          	li	a3,10
   14d38:	001d8593          	addi	a1,s11,1
   14d3c:	00048513          	mv	a0,s1
   14d40:	4b0060ef          	jal	1b1f0 <_strtol_r>
   14d44:	05013783          	ld	a5,80(sp)
   14d48:	40f50633          	sub	a2,a0,a5
   14d4c:	fc1ff06f          	j	14d0c <__svfscanf_r+0xeec>
   14d50:	001afa93          	andi	s5,s5,1
   14d54:	000b3703          	ld	a4,0(s6)
   14d58:	008b0b13          	addi	s6,s6,8
   14d5c:	0c0a8063          	beqz	s5,14e1c <__svfscanf_r+0xffc>
   14d60:	00a73023          	sd	a0,0(a4)
   14d64:	eb9ff06f          	j	14c1c <__svfscanf_r+0xdfc>
   14d68:	008b0a93          	addi	s5,s6,8
   14d6c:	000b3c83          	ld	s9,0(s6)
   14d70:	6c9040ef          	jal	19c38 <__fpclassifyd>
   14d74:	18050063          	beqz	a0,14ef4 <__svfscanf_r+0x10d4>
   14d78:	40147453          	fcvt.s.d	fs0,fs0
   14d7c:	000a8b13          	mv	s6,s5
   14d80:	008ca027          	fsw	fs0,0(s9)
   14d84:	b19ff06f          	j	1489c <__svfscanf_r+0xa7c>
   14d88:	679020ef          	jal	17c00 <__locale_mb_cur_max>
   14d8c:	b2aa0663          	beq	s4,a0,140b8 <__svfscanf_r+0x298>
   14d90:	000c3683          	ld	a3,0(s8)
   14d94:	008c2603          	lw	a2,8(s8)
   14d98:	2d010793          	addi	a5,sp,720
   14d9c:	0006cf03          	lbu	t5,0(a3)
   14da0:	fff6061b          	addiw	a2,a2,-1
   14da4:	00168693          	addi	a3,a3,1
   14da8:	001a0d1b          	addiw	s10,s4,1
   14dac:	01478eb3          	add	t4,a5,s4
   14db0:	00cc2423          	sw	a2,8(s8)
   14db4:	00dc3023          	sd	a3,0(s8)
   14db8:	000c8713          	mv	a4,s9
   14dbc:	000d0693          	mv	a3,s10
   14dc0:	17010613          	addi	a2,sp,368
   14dc4:	000a8593          	mv	a1,s5
   14dc8:	00048513          	mv	a0,s1
   14dcc:	ebee8023          	sb	t5,-352(t4)
   14dd0:	020030ef          	jal	17df0 <_mbrtowc_r>
   14dd4:	fff00793          	li	a5,-1
   14dd8:	aef50063          	beq	a0,a5,140b8 <__svfscanf_r+0x298>
   14ddc:	04051463          	bnez	a0,14e24 <__svfscanf_r+0x1004>
   14de0:	000aa023          	sw	zero,0(s5)
   14de4:	00000513          	li	a0,0
   14de8:	565020ef          	jal	17b4c <iswspace>
   14dec:	06050263          	beqz	a0,14e50 <__svfscanf_r+0x1030>
   14df0:	e80d08e3          	beqz	s10,14c80 <__svfscanf_r+0xe60>
   14df4:	fffd0d1b          	addiw	s10,s10,-1
   14df8:	000d0713          	mv	a4,s10
   14dfc:	2d010793          	addi	a5,sp,720
   14e00:	00e78733          	add	a4,a5,a4
   14e04:	ea074583          	lbu	a1,-352(a4)
   14e08:	000c0613          	mv	a2,s8
   14e0c:	00048513          	mv	a0,s1
   14e10:	4bc080ef          	jal	1d2cc <_ungetc_r>
   14e14:	fe0d10e3          	bnez	s10,14df4 <__svfscanf_r+0xfd4>
   14e18:	e69ff06f          	j	14c80 <__svfscanf_r+0xe60>
   14e1c:	00a72023          	sw	a0,0(a4)
   14e20:	dfdff06f          	j	14c1c <__svfscanf_r+0xdfc>
   14e24:	ffe00793          	li	a5,-2
   14e28:	000d0a13          	mv	s4,s10
   14e2c:	04f51263          	bne	a0,a5,14e70 <__svfscanf_r+0x1050>
   14e30:	008c2683          	lw	a3,8(s8)
   14e34:	e2d046e3          	bgtz	a3,14c60 <__svfscanf_r+0xe40>
   14e38:	000c0593          	mv	a1,s8
   14e3c:	00048513          	mv	a0,s1
   14e40:	2ed040ef          	jal	1992c <__srefill_r>
   14e44:	e0050ee3          	beqz	a0,14c60 <__svfscanf_r+0xe40>
   14e48:	a60a1863          	bnez	s4,140b8 <__svfscanf_r+0x298>
   14e4c:	e35ff06f          	j	14c80 <__svfscanf_r+0xe60>
   14e50:	00812783          	lw	a5,8(sp)
   14e54:	01ab8bbb          	addw	s7,s7,s10
   14e58:	fff90913          	addi	s2,s2,-1
   14e5c:	00000a13          	li	s4,0
   14e60:	fc0798e3          	bnez	a5,14e30 <__svfscanf_r+0x1010>
   14e64:	004a8a93          	addi	s5,s5,4
   14e68:	00078a13          	mv	s4,a5
   14e6c:	fc5ff06f          	j	14e30 <__svfscanf_r+0x1010>
   14e70:	000aa503          	lw	a0,0(s5)
   14e74:	f75ff06f          	j	14de8 <__svfscanf_r+0xfc8>
   14e78:	03013783          	ld	a5,48(sp)
   14e7c:	8db7fc63          	bleu	s11,a5,13f54 <__svfscanf_r+0x134>
   14e80:	fffd8d93          	addi	s11,s11,-1
   14e84:	000dc583          	lbu	a1,0(s11)
   14e88:	000c0613          	mv	a2,s8
   14e8c:	00048513          	mv	a0,s1
   14e90:	43c080ef          	jal	1d2cc <_ungetc_r>
   14e94:	03013783          	ld	a5,48(sp)
   14e98:	fefd94e3          	bne	s11,a5,14e80 <__svfscanf_r+0x1060>
   14e9c:	8b8ff06f          	j	13f54 <__svfscanf_r+0x134>
   14ea0:	03013783          	ld	a5,48(sp)
   14ea4:	8bb7f863          	bleu	s11,a5,13f54 <__svfscanf_r+0x134>
   14ea8:	fffd8d93          	addi	s11,s11,-1
   14eac:	000dc583          	lbu	a1,0(s11)
   14eb0:	000c0613          	mv	a2,s8
   14eb4:	00048513          	mv	a0,s1
   14eb8:	414080ef          	jal	1d2cc <_ungetc_r>
   14ebc:	03013783          	ld	a5,48(sp)
   14ec0:	fefd94e3          	bne	s11,a5,14ea8 <__svfscanf_r+0x1088>
   14ec4:	890ff06f          	j	13f54 <__svfscanf_r+0x134>
   14ec8:	03013783          	ld	a5,48(sp)
   14ecc:	01b7e463          	bltu	a5,s11,14ed4 <__svfscanf_r+0x10b4>
   14ed0:	884ff06f          	j	13f54 <__svfscanf_r+0x134>
   14ed4:	fffd8d93          	addi	s11,s11,-1
   14ed8:	000dc583          	lbu	a1,0(s11)
   14edc:	000c0613          	mv	a2,s8
   14ee0:	00048513          	mv	a0,s1
   14ee4:	3e8080ef          	jal	1d2cc <_ungetc_r>
   14ee8:	03013783          	ld	a5,48(sp)
   14eec:	fefd94e3          	bne	s11,a5,14ed4 <__svfscanf_r+0x10b4>
   14ef0:	864ff06f          	j	13f54 <__svfscanf_r+0x134>
   14ef4:	00000513          	li	a0,0
   14ef8:	535040ef          	jal	19c2c <nanf>
   14efc:	00aca027          	fsw	fa0,0(s9)
   14f00:	000a8b13          	mv	s6,s5
   14f04:	999ff06f          	j	1489c <__svfscanf_r+0xa7c>

0000000000014f08 <vfscanf>:
   14f08:	fd010113          	addi	sp,sp,-48
   14f0c:	02813023          	sd	s0,32(sp)
   14f10:	8101b403          	ld	s0,-2032(gp) # 249e0 <_impure_ptr>
   14f14:	00913c23          	sd	s1,24(sp)
   14f18:	02113423          	sd	ra,40(sp)
   14f1c:	00050493          	mv	s1,a0
   14f20:	00060693          	mv	a3,a2
   14f24:	02040263          	beqz	s0,14f48 <vfscanf+0x40>
   14f28:	05042783          	lw	a5,80(s0)
   14f2c:	00079e63          	bnez	a5,14f48 <vfscanf+0x40>
   14f30:	00040513          	mv	a0,s0
   14f34:	00b13023          	sd	a1,0(sp)
   14f38:	00c13423          	sd	a2,8(sp)
   14f3c:	719010ef          	jal	16e54 <__sinit>
   14f40:	00813683          	ld	a3,8(sp)
   14f44:	00013583          	ld	a1,0(sp)
   14f48:	00058613          	mv	a2,a1
   14f4c:	00040513          	mv	a0,s0
   14f50:	00048593          	mv	a1,s1
   14f54:	02813083          	ld	ra,40(sp)
   14f58:	02013403          	ld	s0,32(sp)
   14f5c:	01813483          	ld	s1,24(sp)
   14f60:	03010113          	addi	sp,sp,48
   14f64:	ebdfe06f          	j	13e20 <__svfscanf_r>

0000000000014f68 <__svfscanf>:
   14f68:	00060693          	mv	a3,a2
   14f6c:	00058613          	mv	a2,a1
   14f70:	00050593          	mv	a1,a0
   14f74:	8101b503          	ld	a0,-2032(gp) # 249e0 <_impure_ptr>
   14f78:	ea9fe06f          	j	13e20 <__svfscanf_r>

0000000000014f7c <_vfscanf_r>:
   14f7c:	fd010113          	addi	sp,sp,-48
   14f80:	02813023          	sd	s0,32(sp)
   14f84:	02113423          	sd	ra,40(sp)
   14f88:	00050413          	mv	s0,a0
   14f8c:	02050463          	beqz	a0,14fb4 <_vfscanf_r+0x38>
   14f90:	05052783          	lw	a5,80(a0)
   14f94:	02079063          	bnez	a5,14fb4 <_vfscanf_r+0x38>
   14f98:	00d13c23          	sd	a3,24(sp)
   14f9c:	00c13823          	sd	a2,16(sp)
   14fa0:	00b13423          	sd	a1,8(sp)
   14fa4:	6b1010ef          	jal	16e54 <__sinit>
   14fa8:	01813683          	ld	a3,24(sp)
   14fac:	01013603          	ld	a2,16(sp)
   14fb0:	00813583          	ld	a1,8(sp)
   14fb4:	00040513          	mv	a0,s0
   14fb8:	02813083          	ld	ra,40(sp)
   14fbc:	02013403          	ld	s0,32(sp)
   14fc0:	03010113          	addi	sp,sp,48
   14fc4:	e5dfe06f          	j	13e20 <__svfscanf_r>

0000000000014fc8 <__swbuf_r>:
   14fc8:	fd010113          	addi	sp,sp,-48
   14fcc:	02813023          	sd	s0,32(sp)
   14fd0:	00913c23          	sd	s1,24(sp)
   14fd4:	01313423          	sd	s3,8(sp)
   14fd8:	02113423          	sd	ra,40(sp)
   14fdc:	01213823          	sd	s2,16(sp)
   14fe0:	00050493          	mv	s1,a0
   14fe4:	00058993          	mv	s3,a1
   14fe8:	00060413          	mv	s0,a2
   14fec:	00050663          	beqz	a0,14ff8 <__swbuf_r+0x30>
   14ff0:	05052783          	lw	a5,80(a0)
   14ff4:	12078e63          	beqz	a5,15130 <__swbuf_r+0x168>
   14ff8:	01041683          	lh	a3,16(s0)
   14ffc:	02842783          	lw	a5,40(s0)
   15000:	03069713          	slli	a4,a3,0x30
   15004:	03075713          	srli	a4,a4,0x30
   15008:	00f42623          	sw	a5,12(s0)
   1500c:	00877793          	andi	a5,a4,8
   15010:	0e078e63          	beqz	a5,1510c <__swbuf_r+0x144>
   15014:	01843783          	ld	a5,24(s0)
   15018:	0e078a63          	beqz	a5,1510c <__swbuf_r+0x144>
   1501c:	03271613          	slli	a2,a4,0x32
   15020:	0ff9f913          	andi	s2,s3,255
   15024:	06065663          	bgez	a2,15090 <__swbuf_r+0xc8>
   15028:	00043703          	ld	a4,0(s0)
   1502c:	02042683          	lw	a3,32(s0)
   15030:	40f707bb          	subw	a5,a4,a5
   15034:	08d7d663          	ble	a3,a5,150c0 <__swbuf_r+0xf8>
   15038:	0017879b          	addiw	a5,a5,1
   1503c:	00c42683          	lw	a3,12(s0)
   15040:	00170613          	addi	a2,a4,1
   15044:	00c43023          	sd	a2,0(s0)
   15048:	fff6869b          	addiw	a3,a3,-1
   1504c:	00d42623          	sw	a3,12(s0)
   15050:	01370023          	sb	s3,0(a4)
   15054:	02042703          	lw	a4,32(s0)
   15058:	08f70263          	beq	a4,a5,150dc <__swbuf_r+0x114>
   1505c:	01045783          	lhu	a5,16(s0)
   15060:	00090513          	mv	a0,s2
   15064:	0017f793          	andi	a5,a5,1
   15068:	00078663          	beqz	a5,15074 <__swbuf_r+0xac>
   1506c:	00a00793          	li	a5,10
   15070:	06f90663          	beq	s2,a5,150dc <__swbuf_r+0x114>
   15074:	02813083          	ld	ra,40(sp)
   15078:	02013403          	ld	s0,32(sp)
   1507c:	01813483          	ld	s1,24(sp)
   15080:	01013903          	ld	s2,16(sp)
   15084:	00813983          	ld	s3,8(sp)
   15088:	03010113          	addi	sp,sp,48
   1508c:	00008067          	ret
   15090:	0ac42583          	lw	a1,172(s0)
   15094:	ffffe737          	lui	a4,0xffffe
   15098:	fff7071b          	addiw	a4,a4,-1
   1509c:	00e5f733          	and	a4,a1,a4
   150a0:	00002637          	lui	a2,0x2
   150a4:	00c6e6b3          	or	a3,a3,a2
   150a8:	0ae42623          	sw	a4,172(s0)
   150ac:	00043703          	ld	a4,0(s0)
   150b0:	00d41823          	sh	a3,16(s0)
   150b4:	02042683          	lw	a3,32(s0)
   150b8:	40f707bb          	subw	a5,a4,a5
   150bc:	f6d7cee3          	blt	a5,a3,15038 <__swbuf_r+0x70>
   150c0:	00040593          	mv	a1,s0
   150c4:	00048513          	mv	a0,s1
   150c8:	1e1010ef          	jal	16aa8 <_fflush_r>
   150cc:	06051663          	bnez	a0,15138 <__swbuf_r+0x170>
   150d0:	00043703          	ld	a4,0(s0)
   150d4:	00100793          	li	a5,1
   150d8:	f65ff06f          	j	1503c <__swbuf_r+0x74>
   150dc:	00040593          	mv	a1,s0
   150e0:	00048513          	mv	a0,s1
   150e4:	1c5010ef          	jal	16aa8 <_fflush_r>
   150e8:	04051863          	bnez	a0,15138 <__swbuf_r+0x170>
   150ec:	02813083          	ld	ra,40(sp)
   150f0:	00090513          	mv	a0,s2
   150f4:	02013403          	ld	s0,32(sp)
   150f8:	01813483          	ld	s1,24(sp)
   150fc:	01013903          	ld	s2,16(sp)
   15100:	00813983          	ld	s3,8(sp)
   15104:	03010113          	addi	sp,sp,48
   15108:	00008067          	ret
   1510c:	00040593          	mv	a1,s0
   15110:	00048513          	mv	a0,s1
   15114:	03c000ef          	jal	15150 <__swsetup_r>
   15118:	02051063          	bnez	a0,15138 <__swbuf_r+0x170>
   1511c:	01041683          	lh	a3,16(s0)
   15120:	01843783          	ld	a5,24(s0)
   15124:	03069713          	slli	a4,a3,0x30
   15128:	03075713          	srli	a4,a4,0x30
   1512c:	ef1ff06f          	j	1501c <__swbuf_r+0x54>
   15130:	525010ef          	jal	16e54 <__sinit>
   15134:	ec5ff06f          	j	14ff8 <__swbuf_r+0x30>
   15138:	fff00513          	li	a0,-1
   1513c:	f39ff06f          	j	15074 <__swbuf_r+0xac>

0000000000015140 <__swbuf>:
   15140:	00058613          	mv	a2,a1
   15144:	00050593          	mv	a1,a0
   15148:	8101b503          	ld	a0,-2032(gp) # 249e0 <_impure_ptr>
   1514c:	e7dff06f          	j	14fc8 <__swbuf_r>

0000000000015150 <__swsetup_r>:
   15150:	8101b783          	ld	a5,-2032(gp) # 249e0 <_impure_ptr>
   15154:	fe010113          	addi	sp,sp,-32
   15158:	00813823          	sd	s0,16(sp)
   1515c:	00913423          	sd	s1,8(sp)
   15160:	00113c23          	sd	ra,24(sp)
   15164:	00050493          	mv	s1,a0
   15168:	00058413          	mv	s0,a1
   1516c:	00078663          	beqz	a5,15178 <__swsetup_r+0x28>
   15170:	0507a703          	lw	a4,80(a5) # 1050 <_ftext-0xefb0>
   15174:	0e070063          	beqz	a4,15254 <__swsetup_r+0x104>
   15178:	01041703          	lh	a4,16(s0)
   1517c:	03071793          	slli	a5,a4,0x30
   15180:	0307d793          	srli	a5,a5,0x30
   15184:	0087f693          	andi	a3,a5,8
   15188:	04068263          	beqz	a3,151cc <__swsetup_r+0x7c>
   1518c:	01843683          	ld	a3,24(s0)
   15190:	06068663          	beqz	a3,151fc <__swsetup_r+0xac>
   15194:	0017f713          	andi	a4,a5,1
   15198:	08071463          	bnez	a4,15220 <__swsetup_r+0xd0>
   1519c:	0027f793          	andi	a5,a5,2
   151a0:	00000713          	li	a4,0
   151a4:	00079463          	bnez	a5,151ac <__swsetup_r+0x5c>
   151a8:	02042703          	lw	a4,32(s0)
   151ac:	00e42623          	sw	a4,12(s0)
   151b0:	00000513          	li	a0,0
   151b4:	08068263          	beqz	a3,15238 <__swsetup_r+0xe8>
   151b8:	01813083          	ld	ra,24(sp)
   151bc:	01013403          	ld	s0,16(sp)
   151c0:	00813483          	ld	s1,8(sp)
   151c4:	02010113          	addi	sp,sp,32
   151c8:	00008067          	ret
   151cc:	0107f693          	andi	a3,a5,16
   151d0:	0c068663          	beqz	a3,1529c <__swsetup_r+0x14c>
   151d4:	0047f793          	andi	a5,a5,4
   151d8:	08079463          	bnez	a5,15260 <__swsetup_r+0x110>
   151dc:	01843683          	ld	a3,24(s0)
   151e0:	00876793          	ori	a5,a4,8
   151e4:	0107979b          	slliw	a5,a5,0x10
   151e8:	4107d79b          	sraiw	a5,a5,0x10
   151ec:	00f41823          	sh	a5,16(s0)
   151f0:	03079793          	slli	a5,a5,0x30
   151f4:	0307d793          	srli	a5,a5,0x30
   151f8:	f8069ee3          	bnez	a3,15194 <__swsetup_r+0x44>
   151fc:	2807f713          	andi	a4,a5,640
   15200:	20000613          	li	a2,512
   15204:	f8c708e3          	beq	a4,a2,15194 <__swsetup_r+0x44>
   15208:	00040593          	mv	a1,s0
   1520c:	00048513          	mv	a0,s1
   15210:	235020ef          	jal	17c44 <__smakebuf_r>
   15214:	01045783          	lhu	a5,16(s0)
   15218:	01843683          	ld	a3,24(s0)
   1521c:	f79ff06f          	j	15194 <__swsetup_r+0x44>
   15220:	02042783          	lw	a5,32(s0)
   15224:	00042623          	sw	zero,12(s0)
   15228:	00000513          	li	a0,0
   1522c:	40f007bb          	negw	a5,a5
   15230:	02f42423          	sw	a5,40(s0)
   15234:	f80692e3          	bnez	a3,151b8 <__swsetup_r+0x68>
   15238:	01041783          	lh	a5,16(s0)
   1523c:	0807f713          	andi	a4,a5,128
   15240:	f6070ce3          	beqz	a4,151b8 <__swsetup_r+0x68>
   15244:	0407e793          	ori	a5,a5,64
   15248:	00f41823          	sh	a5,16(s0)
   1524c:	fff00513          	li	a0,-1
   15250:	f69ff06f          	j	151b8 <__swsetup_r+0x68>
   15254:	00078513          	mv	a0,a5
   15258:	3fd010ef          	jal	16e54 <__sinit>
   1525c:	f1dff06f          	j	15178 <__swsetup_r+0x28>
   15260:	05843583          	ld	a1,88(s0)
   15264:	00058e63          	beqz	a1,15280 <__swsetup_r+0x130>
   15268:	07440793          	addi	a5,s0,116
   1526c:	00f58863          	beq	a1,a5,1527c <__swsetup_r+0x12c>
   15270:	00048513          	mv	a0,s1
   15274:	7a5010ef          	jal	17218 <_free_r>
   15278:	01041703          	lh	a4,16(s0)
   1527c:	04043c23          	sd	zero,88(s0)
   15280:	01843683          	ld	a3,24(s0)
   15284:	fdb77713          	andi	a4,a4,-37
   15288:	0107171b          	slliw	a4,a4,0x10
   1528c:	4107571b          	sraiw	a4,a4,0x10
   15290:	00042423          	sw	zero,8(s0)
   15294:	00d43023          	sd	a3,0(s0)
   15298:	f49ff06f          	j	151e0 <__swsetup_r+0x90>
   1529c:	00900793          	li	a5,9
   152a0:	00f4a023          	sw	a5,0(s1)
   152a4:	04076713          	ori	a4,a4,64
   152a8:	00e41823          	sh	a4,16(s0)
   152ac:	fff00513          	li	a0,-1
   152b0:	f09ff06f          	j	151b8 <__swsetup_r+0x68>

00000000000152b4 <__register_exitproc>:
   152b4:	fd010113          	addi	sp,sp,-48
   152b8:	02813023          	sd	s0,32(sp)
   152bc:	8081b403          	ld	s0,-2040(gp) # 249d8 <_global_impure_ptr>
   152c0:	00913c23          	sd	s1,24(sp)
   152c4:	00050493          	mv	s1,a0
   152c8:	1f843503          	ld	a0,504(s0)
   152cc:	01213823          	sd	s2,16(sp)
   152d0:	01313423          	sd	s3,8(sp)
   152d4:	01413023          	sd	s4,0(sp)
   152d8:	02113423          	sd	ra,40(sp)
   152dc:	00058913          	mv	s2,a1
   152e0:	00060a13          	mv	s4,a2
   152e4:	00068993          	mv	s3,a3
   152e8:	0c050463          	beqz	a0,153b0 <__register_exitproc+0xfc>
   152ec:	00852703          	lw	a4,8(a0)
   152f0:	01f00793          	li	a5,31
   152f4:	0017059b          	addiw	a1,a4,1
   152f8:	02e7de63          	ble	a4,a5,15334 <__register_exitproc+0x80>
   152fc:	000117b7          	lui	a5,0x11
   15300:	26878793          	addi	a5,a5,616 # 11268 <malloc>
   15304:	0a078c63          	beqz	a5,153bc <__register_exitproc+0x108>
   15308:	31800513          	li	a0,792
   1530c:	f5dfb0ef          	jal	11268 <malloc>
   15310:	0a050663          	beqz	a0,153bc <__register_exitproc+0x108>
   15314:	1f843783          	ld	a5,504(s0)
   15318:	00052423          	sw	zero,8(a0)
   1531c:	00100593          	li	a1,1
   15320:	00f53023          	sd	a5,0(a0)
   15324:	1ea43c23          	sd	a0,504(s0)
   15328:	30052823          	sw	zero,784(a0)
   1532c:	30052a23          	sw	zero,788(a0)
   15330:	00000713          	li	a4,0
   15334:	00070793          	mv	a5,a4
   15338:	02049e63          	bnez	s1,15374 <__register_exitproc+0xc0>
   1533c:	00278793          	addi	a5,a5,2
   15340:	00379793          	slli	a5,a5,0x3
   15344:	00b52423          	sw	a1,8(a0)
   15348:	00f50533          	add	a0,a0,a5
   1534c:	01253023          	sd	s2,0(a0)
   15350:	00000513          	li	a0,0
   15354:	02813083          	ld	ra,40(sp)
   15358:	02013403          	ld	s0,32(sp)
   1535c:	01813483          	ld	s1,24(sp)
   15360:	01013903          	ld	s2,16(sp)
   15364:	00813983          	ld	s3,8(sp)
   15368:	00013a03          	ld	s4,0(sp)
   1536c:	03010113          	addi	sp,sp,48
   15370:	00008067          	ret
   15374:	00371813          	slli	a6,a4,0x3
   15378:	01050833          	add	a6,a0,a6
   1537c:	11483823          	sd	s4,272(a6)
   15380:	31052883          	lw	a7,784(a0)
   15384:	00100613          	li	a2,1
   15388:	00e6173b          	sllw	a4,a2,a4
   1538c:	00e8e633          	or	a2,a7,a4
   15390:	30c52823          	sw	a2,784(a0)
   15394:	21383823          	sd	s3,528(a6)
   15398:	00200693          	li	a3,2
   1539c:	fad490e3          	bne	s1,a3,1533c <__register_exitproc+0x88>
   153a0:	31452683          	lw	a3,788(a0)
   153a4:	00e6e733          	or	a4,a3,a4
   153a8:	30e52a23          	sw	a4,788(a0)
